
grub.efi:     file format pei-x86-64


Disassembly of section .text:

0000000000001000 <.text>:
    1000:	48 89 0d 29 e8 00 00 	mov    %rcx,0xe829(%rip)        # 0xf830
    1007:	48 89 15 1a e8 00 00 	mov    %rdx,0xe81a(%rip)        # 0xf828
    100e:	48 83 e4 f0          	and    $0xfffffffffffffff0,%rsp
    1012:	e8 5f 81 00 00       	call   0x9176
    1017:	41 54                	push   %r12
    1019:	55                   	push   %rbp
    101a:	31 ed                	xor    %ebp,%ebp
    101c:	53                   	push   %rbx
    101d:	89 e8                	mov    %ebp,%eax
    101f:	0f a2                	cpuid  
    1021:	0f 31                	rdtsc  
    1023:	48 c1 e2 20          	shl    $0x20,%rdx
    1027:	89 c0                	mov    %eax,%eax
    1029:	be e8 03 00 00       	mov    $0x3e8,%esi
    102e:	48 09 c2             	or     %rax,%rdx
    1031:	48 a1 28 f8 00 00 00 	movabs 0xf828,%rax
    1038:	00 00 00 
    103b:	49 89 d4             	mov    %rdx,%r12
    103e:	48 8b 40 60          	mov    0x60(%rax),%rax
    1042:	48 8b b8 f8 00 00 00 	mov    0xf8(%rax),%rdi
    1049:	48 b8 82 11 00 00 00 	movabs $0x1182,%rax
    1050:	00 00 00 
    1053:	ff d0                	call   *%rax
    1055:	89 e8                	mov    %ebp,%eax
    1057:	0f a2                	cpuid  
    1059:	0f 31                	rdtsc  
    105b:	89 c0                	mov    %eax,%eax
    105d:	48 c1 e2 20          	shl    $0x20,%rdx
    1061:	bf 01 00 00 00       	mov    $0x1,%edi
    1066:	48 09 c2             	or     %rax,%rdx
    1069:	48 c1 e7 20          	shl    $0x20,%rdi
    106d:	48 b8 e8 9a 00 00 00 	movabs $0x9ae8,%rax
    1074:	00 00 00 
    1077:	48 89 d6             	mov    %rdx,%rsi
    107a:	31 d2                	xor    %edx,%edx
    107c:	4c 29 e6             	sub    %r12,%rsi
    107f:	ff d0                	call   *%rax
    1081:	5b                   	pop    %rbx
    1082:	5d                   	pop    %rbp
    1083:	a3 00 f8 00 00 00 00 	movabs %eax,0xf800
    108a:	00 00 
    108c:	41 5c                	pop    %r12
    108e:	b8 01 00 00 00       	mov    $0x1,%eax
    1093:	c3                   	ret    
    1094:	53                   	push   %rbx
    1095:	89 fa                	mov    %edi,%edx
    1097:	41 89 fa             	mov    %edi,%r10d
    109a:	ed                   	in     (%dx),%eax
    109b:	25 ff ff ff 00       	and    $0xffffff,%eax
    10a0:	0f b7 f6             	movzwl %si,%esi
    10a3:	41 89 c1             	mov    %eax,%r9d
    10a6:	8d 3c 06             	lea    (%rsi,%rax,1),%edi
    10a9:	31 c0                	xor    %eax,%eax
    10ab:	0f a2                	cpuid  
    10ad:	0f 31                	rdtsc  
    10af:	48 c1 e2 20          	shl    $0x20,%rdx
    10b3:	89 c0                	mov    %eax,%eax
    10b5:	45 31 c0             	xor    %r8d,%r8d
    10b8:	48 89 d6             	mov    %rdx,%rsi
    10bb:	48 09 c6             	or     %rax,%rsi
    10be:	44 89 d2             	mov    %r10d,%edx
    10c1:	ed                   	in     (%dx),%eax
    10c2:	25 ff ff ff 00       	and    $0xffffff,%eax
    10c7:	41 39 c1             	cmp    %eax,%r9d
    10ca:	76 05                	jbe    0x10d1
    10cc:	0d 00 00 00 01       	or     $0x1000000,%eax
    10d1:	41 ff c0             	inc    %r8d
    10d4:	39 f8                	cmp    %edi,%eax
    10d6:	72 17                	jb     0x10ef
    10d8:	31 c0                	xor    %eax,%eax
    10da:	0f a2                	cpuid  
    10dc:	0f 31                	rdtsc  
    10de:	89 c0                	mov    %eax,%eax
    10e0:	48 c1 e2 20          	shl    $0x20,%rdx
    10e4:	48 09 c2             	or     %rax,%rdx
    10e7:	48 89 d0             	mov    %rdx,%rax
    10ea:	48 29 f0             	sub    %rsi,%rax
    10ed:	eb 25                	jmp    0x1114
    10ef:	44 89 c0             	mov    %r8d,%eax
    10f2:	25 ff ff ff 00       	and    $0xffffff,%eax
    10f7:	75 c5                	jne    0x10be
    10f9:	0f a2                	cpuid  
    10fb:	0f 31                	rdtsc  
    10fd:	48 c1 e2 20          	shl    $0x20,%rdx
    1101:	89 c0                	mov    %eax,%eax
    1103:	48 09 c2             	or     %rax,%rdx
    1106:	48 29 f2             	sub    %rsi,%rdx
    1109:	48 81 fa 40 4b 4c 00 	cmp    $0x4c4b40,%rdx
    1110:	76 ac                	jbe    0x10be
    1112:	31 c0                	xor    %eax,%eax
    1114:	5b                   	pop    %rbx
    1115:	c3                   	ret    
    1116:	51                   	push   %rcx
    1117:	48 b8 72 53 00 00 00 	movabs $0x5372,%rax
    111e:	00 00 00 
    1121:	ff d0                	call   *%rax
    1123:	48 85 c0             	test   %rax,%rax
    1126:	75 04                	jne    0x112c
    1128:	31 c0                	xor    %eax,%eax
    112a:	eb 49                	jmp    0x1175
    112c:	8b 78 4c             	mov    0x4c(%rax),%edi
    112f:	66 85 ff             	test   %di,%di
    1132:	74 f4                	je     0x1128
    1134:	be fc 0d 00 00       	mov    $0xdfc,%esi
    1139:	0f b7 ff             	movzwl %di,%edi
    113c:	48 b8 94 10 00 00 00 	movabs $0x1094,%rax
    1143:	00 00 00 
    1146:	ff d0                	call   *%rax
    1148:	48 89 c6             	mov    %rax,%rsi
    114b:	48 85 c0             	test   %rax,%rax
    114e:	74 d8                	je     0x1128
    1150:	bf 01 00 00 00       	mov    $0x1,%edi
    1155:	31 d2                	xor    %edx,%edx
    1157:	48 b8 e8 9a 00 00 00 	movabs $0x9ae8,%rax
    115e:	00 00 00 
    1161:	48 c1 e7 20          	shl    $0x20,%rdi
    1165:	ff d0                	call   *%rax
    1167:	a3 00 f8 00 00 00 00 	movabs %eax,0xf800
    116e:	00 00 
    1170:	b8 01 00 00 00       	mov    $0x1,%eax
    1175:	5a                   	pop    %rdx
    1176:	c3                   	ret    
    1177:	48 83 ec 28          	sub    $0x28,%rsp
    117b:	ff d7                	call   *%rdi
    117d:	48 83 c4 28          	add    $0x28,%rsp
    1181:	c3                   	ret    
    1182:	48 83 ec 28          	sub    $0x28,%rsp
    1186:	48 89 f1             	mov    %rsi,%rcx
    1189:	ff d7                	call   *%rdi
    118b:	48 83 c4 28          	add    $0x28,%rsp
    118f:	c3                   	ret    
    1190:	48 83 ec 28          	sub    $0x28,%rsp
    1194:	48 89 f1             	mov    %rsi,%rcx
    1197:	ff d7                	call   *%rdi
    1199:	48 83 c4 28          	add    $0x28,%rsp
    119d:	c3                   	ret    
    119e:	48 83 ec 28          	sub    $0x28,%rsp
    11a2:	49 89 c8             	mov    %rcx,%r8
    11a5:	48 89 f1             	mov    %rsi,%rcx
    11a8:	ff d7                	call   *%rdi
    11aa:	48 83 c4 28          	add    $0x28,%rsp
    11ae:	c3                   	ret    
    11af:	48 83 ec 28          	sub    $0x28,%rsp
    11b3:	4d 89 c1             	mov    %r8,%r9
    11b6:	49 89 c8             	mov    %rcx,%r8
    11b9:	48 89 f1             	mov    %rsi,%rcx
    11bc:	ff d7                	call   *%rdi
    11be:	48 83 c4 28          	add    $0x28,%rsp
    11c2:	c3                   	ret    
    11c3:	48 83 ec 28          	sub    $0x28,%rsp
    11c7:	4c 89 4c 24 20       	mov    %r9,0x20(%rsp)
    11cc:	4d 89 c1             	mov    %r8,%r9
    11cf:	49 89 c8             	mov    %rcx,%r8
    11d2:	48 89 f1             	mov    %rsi,%rcx
    11d5:	ff d7                	call   *%rdi
    11d7:	48 83 c4 28          	add    $0x28,%rsp
    11db:	c3                   	ret    
    11dc:	48 83 ec 38          	sub    $0x38,%rsp
    11e0:	48 8b 44 24 40       	mov    0x40(%rsp),%rax
    11e5:	48 89 44 24 28       	mov    %rax,0x28(%rsp)
    11ea:	4c 89 4c 24 20       	mov    %r9,0x20(%rsp)
    11ef:	4d 89 c1             	mov    %r8,%r9
    11f2:	49 89 c8             	mov    %rcx,%r8
    11f5:	48 89 f1             	mov    %rsi,%rcx
    11f8:	ff d7                	call   *%rdi
    11fa:	48 83 c4 38          	add    $0x38,%rsp
    11fe:	c3                   	ret    
    11ff:	48 83 ec 58          	sub    $0x58,%rsp
    1203:	48 8b 44 24 68       	mov    0x68(%rsp),%rax
    1208:	48 89 44 24 30       	mov    %rax,0x30(%rsp)
    120d:	48 8b 44 24 60       	mov    0x60(%rsp),%rax
    1212:	48 89 44 24 28       	mov    %rax,0x28(%rsp)
    1217:	4c 89 4c 24 20       	mov    %r9,0x20(%rsp)
    121c:	4d 89 c1             	mov    %r8,%r9
    121f:	49 89 c8             	mov    %rcx,%r8
    1222:	48 89 f1             	mov    %rsi,%rcx
    1225:	ff d7                	call   *%rdi
    1227:	48 83 c4 58          	add    $0x58,%rsp
    122b:	c3                   	ret    
    122c:	48 83 ec 58          	sub    $0x58,%rsp
    1230:	48 8b 84 24 80 00 00 	mov    0x80(%rsp),%rax
    1237:	00 
    1238:	48 89 44 24 48       	mov    %rax,0x48(%rsp)
    123d:	48 8b 44 24 78       	mov    0x78(%rsp),%rax
    1242:	48 89 44 24 40       	mov    %rax,0x40(%rsp)
    1247:	48 8b 44 24 70       	mov    0x70(%rsp),%rax
    124c:	48 89 44 24 38       	mov    %rax,0x38(%rsp)
    1251:	48 8b 44 24 68       	mov    0x68(%rsp),%rax
    1256:	48 89 44 24 30       	mov    %rax,0x30(%rsp)
    125b:	48 8b 44 24 60       	mov    0x60(%rsp),%rax
    1260:	48 89 44 24 28       	mov    %rax,0x28(%rsp)
    1265:	4c 89 4c 24 20       	mov    %r9,0x20(%rsp)
    126a:	4d 89 c1             	mov    %r8,%r9
    126d:	49 89 c8             	mov    %rcx,%r8
    1270:	48 89 f1             	mov    %rsi,%rcx
    1273:	ff d7                	call   *%rdi
    1275:	48 83 c4 58          	add    $0x58,%rsp
    1279:	c3                   	ret    
    127a:	50                   	push   %rax
    127b:	48 b8 42 3e 00 00 00 	movabs $0x3e42,%rax
    1282:	00 00 00 
    1285:	ff d0                	call   *%rax
    1287:	5a                   	pop    %rdx
    1288:	48 b8 e2 16 00 00 00 	movabs $0x16e2,%rax
    128f:	00 00 00 
    1292:	ff e0                	jmp    *%rax
    1294:	40 f6 c7 01          	test   $0x1,%dil
    1298:	74 23                	je     0x12bd
    129a:	48 b8 ce 3f 00 00 00 	movabs $0x3fce,%rax
    12a1:	00 00 00 
    12a4:	53                   	push   %rbx
    12a5:	89 fb                	mov    %edi,%ebx
    12a7:	ff d0                	call   *%rax
    12a9:	80 e3 04             	and    $0x4,%bl
    12ac:	75 0d                	jne    0x12bb
    12ae:	48 b8 67 47 00 00 00 	movabs $0x4767,%rax
    12b5:	00 00 00 
    12b8:	5b                   	pop    %rbx
    12b9:	ff e0                	jmp    *%rax
    12bb:	5b                   	pop    %rbx
    12bc:	c3                   	ret    
    12bd:	c3                   	ret    
    12be:	b8 40 00 00 00       	mov    $0x40,%eax
    12c3:	51                   	push   %rcx
    12c4:	48 39 c7             	cmp    %rax,%rdi
    12c7:	48 0f 42 f8          	cmovb  %rax,%rdi
    12cb:	48 8d 44 37 ff       	lea    -0x1(%rdi,%rsi,1),%rax
    12d0:	48 89 fe             	mov    %rdi,%rsi
    12d3:	48 f7 de             	neg    %rsi
    12d6:	48 21 c6             	and    %rax,%rsi
    12d9:	48 b8 62 59 00 00 00 	movabs $0x5962,%rax
    12e0:	00 00 00 
    12e3:	ff d0                	call   *%rax
    12e5:	48 89 c1             	mov    %rax,%rcx
    12e8:	48 c1 e9 20          	shr    $0x20,%rcx
    12ec:	74 1f                	je     0x130d
    12ee:	48 be 38 c2 00 00 00 	movabs $0xc238,%rsi
    12f5:	00 00 00 
    12f8:	bf 26 00 00 00       	mov    $0x26,%edi
    12fd:	31 c0                	xor    %eax,%eax
    12ff:	48 ba 43 86 00 00 00 	movabs $0x8643,%rdx
    1306:	00 00 00 
    1309:	ff d2                	call   *%rdx
    130b:	31 c0                	xor    %eax,%eax
    130d:	5a                   	pop    %rdx
    130e:	c3                   	ret    
    130f:	48 b8 12 5c 00 00 00 	movabs $0x5c12,%rax
    1316:	00 00 00 
    1319:	ff e0                	jmp    *%rax
    131b:	48 89 f8             	mov    %rdi,%rax
    131e:	c3                   	ret    
    131f:	89 f8                	mov    %edi,%eax
    1321:	c3                   	ret    
    1322:	48 83 ec 10          	sub    $0x10,%rsp
    1326:	c1 e6 08             	shl    $0x8,%esi
    1329:	48 89 3c 24          	mov    %rdi,(%rsp)
    132d:	8b 44 24 04          	mov    0x4(%rsp),%eax
    1331:	c1 e7 10             	shl    $0x10,%edi
    1334:	48 83 c4 10          	add    $0x10,%rsp
    1338:	c1 e0 0b             	shl    $0xb,%eax
    133b:	09 c7                	or     %eax,%edi
    133d:	09 d7                	or     %edx,%edi
    133f:	09 f7                	or     %esi,%edi
    1341:	89 f8                	mov    %edi,%eax
    1343:	0d 00 00 00 80       	or     $0x80000000,%eax
    1348:	c3                   	ret    
    1349:	41 57                	push   %r15
    134b:	41 56                	push   %r14
    134d:	49 be 22 13 00 00 00 	movabs $0x1322,%r14
    1354:	00 00 00 
    1357:	41 55                	push   %r13
    1359:	49 89 f5             	mov    %rsi,%r13
    135c:	41 54                	push   %r12
    135e:	49 89 fc             	mov    %rdi,%r12
    1361:	55                   	push   %rbp
    1362:	31 ed                	xor    %ebp,%ebp
    1364:	53                   	push   %rbx
    1365:	48 83 ec 18          	sub    $0x18,%rsp
    1369:	31 db                	xor    %ebx,%ebx
    136b:	45 31 ff             	xor    %r15d,%r15d
    136e:	89 6c 24 04          	mov    %ebp,0x4(%rsp)
    1372:	31 d2                	xor    %edx,%edx
    1374:	44 89 fe             	mov    %r15d,%esi
    1377:	89 5c 24 08          	mov    %ebx,0x8(%rsp)
    137b:	4c 8b 4c 24 04       	mov    0x4(%rsp),%r9
    1380:	44 89 7c 24 0c       	mov    %r15d,0xc(%rsp)
    1385:	4c 89 cf             	mov    %r9,%rdi
    1388:	41 ff d6             	call   *%r14
    138b:	ba f8 0c 00 00       	mov    $0xcf8,%edx
    1390:	ef                   	out    %eax,(%dx)
    1391:	ba fc 0c 00 00       	mov    $0xcfc,%edx
    1396:	ed                   	in     (%dx),%eax
    1397:	89 c2                	mov    %eax,%edx
    1399:	c1 e8 10             	shr    $0x10,%eax
    139c:	3d ff ff 00 00       	cmp    $0xffff,%eax
    13a1:	75 17                	jne    0x13ba
    13a3:	45 85 ff             	test   %r15d,%r15d
    13a6:	74 09                	je     0x13b1
    13a8:	41 ff c7             	inc    %r15d
    13ab:	41 83 ff 08          	cmp    $0x8,%r15d
    13af:	75 bd                	jne    0x136e
    13b1:	ff c3                	inc    %ebx
    13b3:	83 fb 20             	cmp    $0x20,%ebx
    13b6:	74 3c                	je     0x13f4
    13b8:	eb b1                	jmp    0x136b
    13ba:	4c 89 e9             	mov    %r13,%rcx
    13bd:	4c 89 cf             	mov    %r9,%rdi
    13c0:	44 89 fe             	mov    %r15d,%esi
    13c3:	41 ff d4             	call   *%r12
    13c6:	85 c0                	test   %eax,%eax
    13c8:	75 38                	jne    0x1402
    13ca:	45 85 ff             	test   %r15d,%r15d
    13cd:	75 d9                	jne    0x13a8
    13cf:	48 8b 7c 24 04       	mov    0x4(%rsp),%rdi
    13d4:	8b 74 24 0c          	mov    0xc(%rsp),%esi
    13d8:	ba 0c 00 00 00       	mov    $0xc,%edx
    13dd:	41 ff d6             	call   *%r14
    13e0:	ba f8 0c 00 00       	mov    $0xcf8,%edx
    13e5:	ef                   	out    %eax,(%dx)
    13e6:	ba fc 0c 00 00       	mov    $0xcfc,%edx
    13eb:	ed                   	in     (%dx),%eax
    13ec:	0f ba e0 17          	bt     $0x17,%eax
    13f0:	72 b6                	jb     0x13a8
    13f2:	eb bd                	jmp    0x13b1
    13f4:	ff c5                	inc    %ebp
    13f6:	81 fd 00 01 00 00    	cmp    $0x100,%ebp
    13fc:	0f 85 67 ff ff ff    	jne    0x1369
    1402:	48 83 c4 18          	add    $0x18,%rsp
    1406:	5b                   	pop    %rbx
    1407:	5d                   	pop    %rbp
    1408:	41 5c                	pop    %r12
    140a:	41 5d                	pop    %r13
    140c:	41 5e                	pop    %r14
    140e:	41 5f                	pop    %r15
    1410:	c3                   	ret    
    1411:	41 54                	push   %r12
    1413:	41 89 d2             	mov    %edx,%r10d
    1416:	41 b9 31 00 00 00    	mov    $0x31,%r9d
    141c:	41 b0 34             	mov    $0x34,%r8b
    141f:	49 bb 22 13 00 00 00 	movabs $0x1322,%r11
    1426:	00 00 00 
    1429:	55                   	push   %rbp
    142a:	53                   	push   %rbx
    142b:	bb f8 0c 00 00       	mov    $0xcf8,%ebx
    1430:	48 83 ec 10          	sub    $0x10,%rsp
    1434:	48 89 3c 24          	mov    %rdi,(%rsp)
    1438:	89 74 24 08          	mov    %esi,0x8(%rsp)
    143c:	41 ff c9             	dec    %r9d
    143f:	74 61                	je     0x14a2
    1441:	4c 8b 24 24          	mov    (%rsp),%r12
    1445:	8b 6c 24 08          	mov    0x8(%rsp),%ebp
    1449:	41 0f b6 d0          	movzbl %r8b,%edx
    144d:	4c 89 e7             	mov    %r12,%rdi
    1450:	89 ee                	mov    %ebp,%esi
    1452:	41 ff d3             	call   *%r11
    1455:	89 da                	mov    %ebx,%edx
    1457:	89 c1                	mov    %eax,%ecx
    1459:	83 e0 fc             	and    $0xfffffffc,%eax
    145c:	ef                   	out    %eax,(%dx)
    145d:	83 e1 03             	and    $0x3,%ecx
    1460:	8d 91 fc 0c 00 00    	lea    0xcfc(%rcx),%edx
    1466:	ec                   	in     (%dx),%al
    1467:	3c 3f                	cmp    $0x3f,%al
    1469:	76 37                	jbe    0x14a2
    146b:	89 c2                	mov    %eax,%edx
    146d:	41 89 c0             	mov    %eax,%r8d
    1470:	4c 89 e7             	mov    %r12,%rdi
    1473:	89 ee                	mov    %ebp,%esi
    1475:	81 e2 fc 00 00 00    	and    $0xfc,%edx
    147b:	41 83 e0 fc          	and    $0xfffffffc,%r8d
    147f:	41 ff d3             	call   *%r11
    1482:	89 da                	mov    %ebx,%edx
    1484:	89 c1                	mov    %eax,%ecx
    1486:	83 e0 fc             	and    $0xfffffffc,%eax
    1489:	ef                   	out    %eax,(%dx)
    148a:	83 e1 03             	and    $0x3,%ecx
    148d:	8d 91 fc 0c 00 00    	lea    0xcfc(%rcx),%edx
    1493:	ec                   	in     (%dx),%al
    1494:	3c ff                	cmp    $0xff,%al
    1496:	74 0a                	je     0x14a2
    1498:	41 38 c2             	cmp    %al,%r10b
    149b:	74 08                	je     0x14a5
    149d:	41 ff c0             	inc    %r8d
    14a0:	eb 9a                	jmp    0x143c
    14a2:	45 31 c0             	xor    %r8d,%r8d
    14a5:	48 83 c4 10          	add    $0x10,%rsp
    14a9:	44 89 c0             	mov    %r8d,%eax
    14ac:	5b                   	pop    %rbx
    14ad:	5d                   	pop    %rbp
    14ae:	41 5c                	pop    %r12
    14b0:	c3                   	ret    
    14b1:	66 81 7f 04 02 01    	cmpw   $0x102,0x4(%rdi)
    14b7:	75 07                	jne    0x14c0
    14b9:	66 83 7f 12 3e       	cmpw   $0x3e,0x12(%rdi)
    14be:	74 1d                	je     0x14dd
    14c0:	48 be 58 c2 00 00 00 	movabs $0xc258,%rsi
    14c7:	00 00 00 
    14ca:	bf 15 00 00 00       	mov    $0x15,%edi
    14cf:	31 c0                	xor    %eax,%eax
    14d1:	48 ba 43 86 00 00 00 	movabs $0x8643,%rdx
    14d8:	00 00 00 
    14db:	ff e2                	jmp    *%rdx
    14dd:	31 c0                	xor    %eax,%eax
    14df:	c3                   	ret    
    14e0:	41 55                	push   %r13
    14e2:	49 89 f8             	mov    %rdi,%r8
    14e5:	49 89 c9             	mov    %rcx,%r9
    14e8:	48 89 d7             	mov    %rdx,%rdi
    14eb:	49 bb 40 c0 00 00 00 	movabs $0xc040,%r11
    14f2:	00 00 00 
    14f5:	41 54                	push   %r12
    14f7:	55                   	push   %rbp
    14f8:	53                   	push   %rbx
    14f9:	48 bb 50 f8 00 00 00 	movabs $0xf850,%rbx
    1500:	00 00 00 
    1503:	48 83 ec 28          	sub    $0x28,%rsp
    1507:	4c 8b 52 20          	mov    0x20(%rdx),%r10
    150b:	48 8b 03             	mov    (%rbx),%rax
    150e:	48 89 44 24 18       	mov    %rax,0x18(%rsp)
    1513:	48 89 f0             	mov    %rsi,%rax
    1516:	48 03 42 18          	add    0x18(%rdx),%rax
    151a:	49 01 c2             	add    %rax,%r10
    151d:	4c 39 d0             	cmp    %r10,%rax
    1520:	0f 83 59 01 00 00    	jae    0x167f
    1526:	48 8b 28             	mov    (%rax),%rbp
    1529:	49 39 69 10          	cmp    %rbp,0x10(%r9)
    152d:	73 1d                	jae    0x154c
    152f:	48 8b 44 24 18       	mov    0x18(%rsp),%rax
    1534:	48 2b 03             	sub    (%rbx),%rax
    1537:	48 be 79 c2 00 00 00 	movabs $0xc279,%rsi
    153e:	00 00 00 
    1541:	0f 84 aa 00 00 00    	je     0x15f1
    1547:	e9 3f 01 00 00       	jmp    0x168b
    154c:	48 8b 70 08          	mov    0x8(%rax),%rsi
    1550:	4d 8b 69 08          	mov    0x8(%r9),%r13
    1554:	48 89 f1             	mov    %rsi,%rcx
    1557:	49 8d 54 2d 00       	lea    0x0(%r13,%rbp,1),%rdx
    155c:	41 89 f4             	mov    %esi,%r12d
    155f:	48 c1 e9 20          	shr    $0x20,%rcx
    1563:	49 0f af 48 28       	imul   0x28(%r8),%rcx
    1568:	49 03 48 20          	add    0x20(%r8),%rcx
    156c:	83 fe 0b             	cmp    $0xb,%esi
    156f:	77 1c                	ja     0x158d
    1571:	4d 85 e4             	test   %r12,%r12
    1574:	0f 84 b2 00 00 00    	je     0x162c
    157a:	49 8d 74 24 ff       	lea    -0x1(%r12),%rsi
    157f:	48 83 fe 0a          	cmp    $0xa,%rsi
    1583:	0f 87 a3 00 00 00    	ja     0x162c
    1589:	41 ff 24 f3          	jmp    *(%r11,%rsi,8)
    158d:	49 83 fc 18          	cmp    $0x18,%r12
    1591:	0f 85 95 00 00 00    	jne    0x162c
    1597:	48 8b 70 10          	mov    0x10(%rax),%rsi
    159b:	48 29 ee             	sub    %rbp,%rsi
    159e:	4c 29 ee             	sub    %r13,%rsi
    15a1:	48 03 71 08          	add    0x8(%rcx),%rsi
    15a5:	48 01 32             	add    %rsi,(%rdx)
    15a8:	e9 c9 00 00 00       	jmp    0x1676
    15ad:	48 8b 70 10          	mov    0x10(%rax),%rsi
    15b1:	48 03 32             	add    (%rdx),%rsi
    15b4:	48 03 71 08          	add    0x8(%rcx),%rsi
    15b8:	48 89 32             	mov    %rsi,(%rdx)
    15bb:	e9 b6 00 00 00       	jmp    0x1676
    15c0:	48 63 32             	movslq (%rdx),%rsi
    15c3:	48 03 70 10          	add    0x10(%rax),%rsi
    15c7:	48 29 d6             	sub    %rdx,%rsi
    15ca:	48 03 71 08          	add    0x8(%rcx),%rsi
    15ce:	48 89 f1             	mov    %rsi,%rcx
    15d1:	48 63 f6             	movslq %esi,%rsi
    15d4:	48 39 ce             	cmp    %rcx,%rsi
    15d7:	74 4f                	je     0x1628
    15d9:	48 8b 44 24 18       	mov    0x18(%rsp),%rax
    15de:	48 2b 03             	sub    (%rbx),%rax
    15e1:	48 be 9c c2 00 00 00 	movabs $0xc29c,%rsi
    15e8:	00 00 00 
    15eb:	0f 85 9a 00 00 00    	jne    0x168b
    15f1:	48 83 c4 28          	add    $0x28,%rsp
    15f5:	bf 02 00 00 00       	mov    $0x2,%edi
    15fa:	31 c0                	xor    %eax,%eax
    15fc:	48 ba 43 86 00 00 00 	movabs $0x8643,%rdx
    1603:	00 00 00 
    1606:	5b                   	pop    %rbx
    1607:	5d                   	pop    %rbp
    1608:	41 5c                	pop    %r12
    160a:	41 5d                	pop    %r13
    160c:	ff e2                	jmp    *%rdx
    160e:	8b 32                	mov    (%rdx),%esi
    1610:	48 03 70 10          	add    0x10(%rax),%rsi
    1614:	48 03 71 08          	add    0x8(%rcx),%rsi
    1618:	48 89 f1             	mov    %rsi,%rcx
    161b:	89 f6                	mov    %esi,%esi
    161d:	eb b5                	jmp    0x15d4
    161f:	48 63 32             	movslq (%rdx),%rsi
    1622:	48 03 70 10          	add    0x10(%rax),%rsi
    1626:	eb a2                	jmp    0x15ca
    1628:	89 32                	mov    %esi,(%rdx)
    162a:	eb 4a                	jmp    0x1676
    162c:	4c 89 e1             	mov    %r12,%rcx
    162f:	48 8d 7c 24 07       	lea    0x7(%rsp),%rdi
    1634:	be 10 00 00 00       	mov    $0x10,%esi
    1639:	31 c0                	xor    %eax,%eax
    163b:	48 ba b4 c2 00 00 00 	movabs $0xc2b4,%rdx
    1642:	00 00 00 
    1645:	49 b8 cb a7 00 00 00 	movabs $0xa7cb,%r8
    164c:	00 00 00 
    164f:	41 ff d0             	call   *%r8
    1652:	48 8d 54 24 07       	lea    0x7(%rsp),%rdx
    1657:	bf 18 00 00 00       	mov    $0x18,%edi
    165c:	31 c0                	xor    %eax,%eax
    165e:	48 be b8 c2 00 00 00 	movabs $0xc2b8,%rsi
    1665:	00 00 00 
    1668:	48 b9 43 86 00 00 00 	movabs $0x8643,%rcx
    166f:	00 00 00 
    1672:	ff d1                	call   *%rcx
    1674:	eb 0b                	jmp    0x1681
    1676:	48 03 47 38          	add    0x38(%rdi),%rax
    167a:	e9 9e fe ff ff       	jmp    0x151d
    167f:	31 c0                	xor    %eax,%eax
    1681:	48 8b 54 24 18       	mov    0x18(%rsp),%rdx
    1686:	48 2b 13             	sub    (%rbx),%rdx
    1689:	74 0c                	je     0x1697
    168b:	48 b8 40 3e 00 00 00 	movabs $0x3e40,%rax
    1692:	00 00 00 
    1695:	ff d0                	call   *%rax
    1697:	48 83 c4 28          	add    $0x28,%rsp
    169b:	5b                   	pop    %rbx
    169c:	5d                   	pop    %rbp
    169d:	41 5c                	pop    %r12
    169f:	41 5d                	pop    %r13
    16a1:	c3                   	ret    
    16a2:	53                   	push   %rbx
    16a3:	31 c0                	xor    %eax,%eax
    16a5:	0f a2                	cpuid  
    16a7:	0f 31                	rdtsc  
    16a9:	89 c0                	mov    %eax,%eax
    16ab:	48 c1 e2 20          	shl    $0x20,%rdx
    16af:	5b                   	pop    %rbx
    16b0:	48 09 c2             	or     %rax,%rdx
    16b3:	48 b8 08 f8 00 00 00 	movabs $0xf808,%rax
    16ba:	00 00 00 
    16bd:	48 2b 10             	sub    (%rax),%rdx
    16c0:	48 b8 00 f8 00 00 00 	movabs $0xf800,%rax
    16c7:	00 00 00 
    16ca:	8b 08                	mov    (%rax),%ecx
    16cc:	89 d0                	mov    %edx,%eax
    16ce:	48 c1 ea 20          	shr    $0x20,%rdx
    16d2:	48 0f af c1          	imul   %rcx,%rax
    16d6:	48 0f af d1          	imul   %rcx,%rdx
    16da:	48 c1 e8 20          	shr    $0x20,%rax
    16de:	48 01 d0             	add    %rdx,%rax
    16e1:	c3                   	ret    
    16e2:	53                   	push   %rbx
    16e3:	9c                   	pushf  
    16e4:	58                   	pop    %rax
    16e5:	48 89 c1             	mov    %rax,%rcx
    16e8:	48 35 00 00 20 00    	xor    $0x200000,%rax
    16ee:	50                   	push   %rax
    16ef:	9d                   	popf   
    16f0:	9c                   	pushf  
    16f1:	58                   	pop    %rax
    16f2:	48 31 c8             	xor    %rcx,%rax
    16f5:	48 85 c0             	test   %rax,%rax
    16f8:	74 0c                	je     0x1706
    16fa:	b8 01 00 00 00       	mov    $0x1,%eax
    16ff:	0f a2                	cpuid  
    1701:	80 e2 10             	and    $0x10,%dl
    1704:	75 18                	jne    0x171e
    1706:	48 bf df c2 00 00 00 	movabs $0xc2df,%rdi
    170d:	00 00 00 
    1710:	31 c0                	xor    %eax,%eax
    1712:	48 ba 03 aa 00 00 00 	movabs $0xaa03,%rdx
    1719:	00 00 00 
    171c:	ff d2                	call   *%rdx
    171e:	31 c0                	xor    %eax,%eax
    1720:	0f a2                	cpuid  
    1722:	0f 31                	rdtsc  
    1724:	48 c1 e2 20          	shl    $0x20,%rdx
    1728:	89 c0                	mov    %eax,%eax
    172a:	48 09 d0             	or     %rdx,%rax
    172d:	48 a3 08 f8 00 00 00 	movabs %rax,0xf808
    1734:	00 00 00 
    1737:	48 b8 16 11 00 00 00 	movabs $0x1116,%rax
    173e:	00 00 00 
    1741:	ff d0                	call   *%rax
    1743:	85 c0                	test   %eax,%eax
    1745:	75 30                	jne    0x1777
    1747:	48 b8 8e 17 00 00 00 	movabs $0x178e,%rax
    174e:	00 00 00 
    1751:	ff d0                	call   *%rax
    1753:	85 c0                	test   %eax,%eax
    1755:	75 20                	jne    0x1777
    1757:	48 b8 17 10 00 00 00 	movabs $0x1017,%rax
    175e:	00 00 00 
    1761:	ff d0                	call   *%rax
    1763:	85 c0                	test   %eax,%eax
    1765:	75 10                	jne    0x1777
    1767:	48 b8 00 f8 00 00 00 	movabs $0xf800,%rax
    176e:	00 00 00 
    1771:	c7 00 f8 14 00 00    	movl   $0x14f8,(%rax)
    1777:	48 bf a2 16 00 00 00 	movabs $0x16a2,%rdi
    177e:	00 00 00 
    1781:	5b                   	pop    %rbx
    1782:	48 b8 2e 5f 00 00 00 	movabs $0x5f2e,%rax
    1789:	00 00 00 
    178c:	ff e0                	jmp    *%rax
    178e:	53                   	push   %rbx
    178f:	31 c0                	xor    %eax,%eax
    1791:	0f a2                	cpuid  
    1793:	0f 31                	rdtsc  
    1795:	89 c1                	mov    %eax,%ecx
    1797:	e4 61                	in     $0x61,%al
    1799:	83 e0 fc             	and    $0xfffffffc,%eax
    179c:	e6 61                	out    %al,$0x61
    179e:	b0 b0                	mov    $0xb0,%al
    17a0:	e6 43                	out    %al,$0x43
    17a2:	b0 ff                	mov    $0xff,%al
    17a4:	e6 42                	out    %al,$0x42
    17a6:	e6 42                	out    %al,$0x42
    17a8:	e4 61                	in     $0x61,%al
    17aa:	83 e0 fc             	and    $0xfffffffc,%eax
    17ad:	83 c8 01             	or     $0x1,%eax
    17b0:	e6 61                	out    %al,$0x61
    17b2:	e4 61                	in     $0x61,%al
    17b4:	45 31 c0             	xor    %r8d,%r8d
    17b7:	a8 20                	test   $0x20,%al
    17b9:	75 0c                	jne    0x17c7
    17bb:	e4 61                	in     $0x61,%al
    17bd:	a8 20                	test   $0x20,%al
    17bf:	74 fa                	je     0x17bb
    17c1:	41 b8 01 00 00 00    	mov    $0x1,%r8d
    17c7:	e4 61                	in     $0x61,%al
    17c9:	83 e0 fc             	and    $0xfffffffc,%eax
    17cc:	e6 61                	out    %al,$0x61
    17ce:	45 85 c0             	test   %r8d,%r8d
    17d1:	74 59                	je     0x182c
    17d3:	48 c1 e2 20          	shl    $0x20,%rdx
    17d7:	89 c8                	mov    %ecx,%eax
    17d9:	48 89 d7             	mov    %rdx,%rdi
    17dc:	48 09 c7             	or     %rax,%rdi
    17df:	31 c0                	xor    %eax,%eax
    17e1:	0f a2                	cpuid  
    17e3:	0f 31                	rdtsc  
    17e5:	48 bb 00 f8 00 00 00 	movabs $0xf800,%rbx
    17ec:	00 00 00 
    17ef:	48 89 d6             	mov    %rdx,%rsi
    17f2:	89 c0                	mov    %eax,%eax
    17f4:	48 c1 e6 20          	shl    $0x20,%rsi
    17f8:	c7 03 00 00 00 00    	movl   $0x0,(%rbx)
    17fe:	48 09 c6             	or     %rax,%rsi
    1801:	48 39 f7             	cmp    %rsi,%rdi
    1804:	73 1c                	jae    0x1822
    1806:	48 b8 e8 9a 00 00 00 	movabs $0x9ae8,%rax
    180d:	00 00 00 
    1810:	48 29 fe             	sub    %rdi,%rsi
    1813:	31 d2                	xor    %edx,%edx
    1815:	bf 37 00 00 00       	mov    $0x37,%edi
    181a:	48 c1 e7 20          	shl    $0x20,%rdi
    181e:	ff d0                	call   *%rax
    1820:	89 03                	mov    %eax,(%rbx)
    1822:	45 31 c0             	xor    %r8d,%r8d
    1825:	83 3b 00             	cmpl   $0x0,(%rbx)
    1828:	41 0f 95 c0          	setne  %r8b
    182c:	44 89 c0             	mov    %r8d,%eax
    182f:	5b                   	pop    %rbx
    1830:	c3                   	ret    
    1831:	48 89 f8             	mov    %rdi,%rax
    1834:	48 85 c0             	test   %rax,%rax
    1837:	74 0c                	je     0x1845
    1839:	85 f6                	test   %esi,%esi
    183b:	74 08                	je     0x1845
    183d:	48 8b 40 20          	mov    0x20(%rax),%rax
    1841:	ff ce                	dec    %esi
    1843:	eb ef                	jmp    0x1834
    1845:	31 d2                	xor    %edx,%edx
    1847:	85 f6                	test   %esi,%esi
    1849:	48 0f 45 c2          	cmovne %rdx,%rax
    184d:	c3                   	ret    
    184e:	4c 8b 07             	mov    (%rdi),%r8
    1851:	be 1c 02 00 00       	mov    $0x21c,%esi
    1856:	31 c0                	xor    %eax,%eax
    1858:	48 b9 ec c2 00 00 00 	movabs $0xc2ec,%rcx
    185f:	00 00 00 
    1862:	48 ba f8 c2 00 00 00 	movabs $0xc2f8,%rdx
    1869:	00 00 00 
    186c:	48 bf 00 c3 00 00 00 	movabs $0xc300,%rdi
    1873:	00 00 00 
    1876:	49 b9 b7 a6 00 00 00 	movabs $0xa6b7,%r9
    187d:	00 00 00 
    1880:	41 ff e1             	jmp    *%r9
    1883:	55                   	push   %rbp
    1884:	53                   	push   %rbx
    1885:	48 bb 12 5c 00 00 00 	movabs $0x5c12,%rbx
    188c:	00 00 00 
    188f:	52                   	push   %rdx
    1890:	48 85 ff             	test   %rdi,%rdi
    1893:	74 0b                	je     0x18a0
    1895:	48 8b 6f 20          	mov    0x20(%rdi),%rbp
    1899:	ff d3                	call   *%rbx
    189b:	48 89 ef             	mov    %rbp,%rdi
    189e:	eb f0                	jmp    0x1890
    18a0:	58                   	pop    %rax
    18a1:	5b                   	pop    %rbx
    18a2:	5d                   	pop    %rbp
    18a3:	c3                   	ret    
    18a4:	41 55                	push   %r13
    18a6:	49 bd 20 f8 00 00 00 	movabs $0xf820,%r13
    18ad:	00 00 00 
    18b0:	41 54                	push   %r12
    18b2:	49 bc 18 f8 00 00 00 	movabs $0xf818,%r12
    18b9:	00 00 00 
    18bc:	55                   	push   %rbp
    18bd:	48 bd 10 f8 00 00 00 	movabs $0xf810,%rbp
    18c4:	00 00 00 
    18c7:	53                   	push   %rbx
    18c8:	48 bb 83 18 00 00 00 	movabs $0x1883,%rbx
    18cf:	00 00 00 
    18d2:	50                   	push   %rax
    18d3:	49 8b 7d 00          	mov    0x0(%r13),%rdi
    18d7:	ff d3                	call   *%rbx
    18d9:	49 8b 3c 24          	mov    (%r12),%rdi
    18dd:	ff d3                	call   *%rbx
    18df:	48 8b 7d 00          	mov    0x0(%rbp),%rdi
    18e3:	ff d3                	call   *%rbx
    18e5:	49 c7 45 00 00 00 00 	movq   $0x0,0x0(%r13)
    18ec:	00 
    18ed:	48 bf 60 e2 00 00 00 	movabs $0xe260,%rdi
    18f4:	00 00 00 
    18f7:	48 b8 13 6e 00 00 00 	movabs $0x6e13,%rax
    18fe:	00 00 00 
    1901:	49 c7 04 24 00 00 00 	movq   $0x0,(%r12)
    1908:	00 
    1909:	48 c7 45 00 00 00 00 	movq   $0x0,0x0(%rbp)
    1910:	00 
    1911:	5a                   	pop    %rdx
    1912:	5b                   	pop    %rbx
    1913:	5d                   	pop    %rbp
    1914:	41 5c                	pop    %r12
    1916:	41 5d                	pop    %r13
    1918:	ff e0                	jmp    *%rax
    191a:	41 57                	push   %r15
    191c:	31 c0                	xor    %eax,%eax
    191e:	49 89 f8             	mov    %rdi,%r8
    1921:	49 bf f8 c2 00 00 00 	movabs $0xc2f8,%r15
    1928:	00 00 00 
    192b:	48 b9 13 c3 00 00 00 	movabs $0xc313,%rcx
    1932:	00 00 00 
    1935:	41 56                	push   %r14
    1937:	4c 89 fa             	mov    %r15,%rdx
    193a:	49 be 00 c3 00 00 00 	movabs $0xc300,%r14
    1941:	00 00 00 
    1944:	41 55                	push   %r13
    1946:	49 bd b7 a6 00 00 00 	movabs $0xa6b7,%r13
    194d:	00 00 00 
    1950:	41 54                	push   %r12
    1952:	49 89 f4             	mov    %rsi,%r12
    1955:	be e2 01 00 00       	mov    $0x1e2,%esi
    195a:	55                   	push   %rbp
    195b:	48 89 fd             	mov    %rdi,%rbp
    195e:	4c 89 f7             	mov    %r14,%rdi
    1961:	53                   	push   %rbx
    1962:	48 bb 80 aa 01 00 00 	movabs $0x1aa80,%rbx
    1969:	00 00 00 
    196c:	48 83 ec 18          	sub    $0x18,%rsp
    1970:	41 ff d5             	call   *%r13
    1973:	8a 45 00             	mov    0x0(%rbp),%al
    1976:	8d 50 9a             	lea    -0x66(%rax),%edx
    1979:	80 e2 fd             	and    $0xfd,%dl
    197c:	74 04                	je     0x1982
    197e:	3c 63                	cmp    $0x63,%al
    1980:	75 2d                	jne    0x19af
    1982:	80 7d 01 64          	cmpb   $0x64,0x1(%rbp)
    1986:	75 27                	jne    0x19af
    1988:	31 f6                	xor    %esi,%esi
    198a:	48 8d 7d 02          	lea    0x2(%rbp),%rdi
    198e:	ba 0a 00 00 00       	mov    $0xa,%edx
    1993:	48 b8 48 a0 00 00 00 	movabs $0xa048,%rax
    199a:	00 00 00 
    199d:	ff d0                	call   *%rax
    199f:	83 3b 00             	cmpl   $0x0,(%rbx)
    19a2:	48 89 c1             	mov    %rax,%rcx
    19a5:	75 08                	jne    0x19af
    19a7:	89 c6                	mov    %eax,%esi
    19a9:	85 c0                	test   %eax,%eax
    19ab:	79 27                	jns    0x19d4
    19ad:	eb 1d                	jmp    0x19cc
    19af:	48 be 1f c3 00 00 00 	movabs $0xc31f,%rsi
    19b6:	00 00 00 
    19b9:	bf 0c 00 00 00       	mov    $0xc,%edi
    19be:	31 c0                	xor    %eax,%eax
    19c0:	48 ba 43 86 00 00 00 	movabs $0x8643,%rdx
    19c7:	00 00 00 
    19ca:	ff d2                	call   *%rdx
    19cc:	44 8b 0b             	mov    (%rbx),%r9d
    19cf:	e9 6f 01 00 00       	jmp    0x1b43
    19d4:	44 0f be 45 00       	movsbl 0x0(%rbp),%r8d
    19d9:	41 80 f8 66          	cmp    $0x66,%r8b
    19dd:	74 18                	je     0x19f7
    19df:	41 80 f8 68          	cmp    $0x68,%r8b
    19e3:	74 1e                	je     0x1a03
    19e5:	41 80 f8 63          	cmp    $0x63,%r8b
    19e9:	75 39                	jne    0x1a24
    19eb:	48 b8 10 f8 00 00 00 	movabs $0xf810,%rax
    19f2:	00 00 00 
    19f5:	eb 16                	jmp    0x1a0d
    19f7:	48 b8 20 f8 00 00 00 	movabs $0xf820,%rax
    19fe:	00 00 00 
    1a01:	eb 0a                	jmp    0x1a0d
    1a03:	48 b8 18 f8 00 00 00 	movabs $0xf818,%rax
    1a0a:	00 00 00 
    1a0d:	48 8b 38             	mov    (%rax),%rdi
    1a10:	48 b8 31 18 00 00 00 	movabs $0x1831,%rax
    1a17:	00 00 00 
    1a1a:	ff d0                	call   *%rax
    1a1c:	48 89 c3             	mov    %rax,%rbx
    1a1f:	48 85 c0             	test   %rax,%rax
    1a22:	75 2b                	jne    0x1a4f
    1a24:	48 83 c4 18          	add    $0x18,%rsp
    1a28:	bf 0c 00 00 00       	mov    $0xc,%edi
    1a2d:	31 c0                	xor    %eax,%eax
    1a2f:	48 be 2d c3 00 00 00 	movabs $0xc32d,%rsi
    1a36:	00 00 00 
    1a39:	48 ba 43 86 00 00 00 	movabs $0x8643,%rdx
    1a40:	00 00 00 
    1a43:	5b                   	pop    %rbx
    1a44:	5d                   	pop    %rbp
    1a45:	41 5c                	pop    %r12
    1a47:	41 5d                	pop    %r13
    1a49:	41 5e                	pop    %r14
    1a4b:	41 5f                	pop    %r15
    1a4d:	ff e2                	jmp    *%rdx
    1a4f:	48 8b 40 18          	mov    0x18(%rax),%rax
    1a53:	c1 e1 08             	shl    $0x8,%ecx
    1a56:	4c 89 fa             	mov    %r15,%rdx
    1a59:	be ff 01 00 00       	mov    $0x1ff,%esi
    1a5e:	44 09 c1             	or     %r8d,%ecx
    1a61:	4c 89 f7             	mov    %r14,%rdi
    1a64:	4c 8b 40 08          	mov    0x8(%rax),%r8
    1a68:	48 63 c9             	movslq %ecx,%rcx
    1a6b:	49 89 4c 24 20       	mov    %rcx,0x20(%r12)
    1a70:	48 b9 3c c3 00 00 00 	movabs $0xc33c,%rcx
    1a77:	00 00 00 
    1a7a:	41 8b 40 10          	mov    0x10(%r8),%eax
    1a7e:	4d 8b 48 18          	mov    0x18(%r8),%r9
    1a82:	50                   	push   %rax
    1a83:	41 8b 40 0c          	mov    0xc(%r8),%eax
    1a87:	50                   	push   %rax
    1a88:	31 c0                	xor    %eax,%eax
    1a8a:	4c 89 44 24 18       	mov    %r8,0x18(%rsp)
    1a8f:	41 ff d5             	call   *%r13
    1a92:	4c 8b 44 24 18       	mov    0x18(%rsp),%r8
    1a97:	58                   	pop    %rax
    1a98:	48 be 77 c3 00 00 00 	movabs $0xc377,%rsi
    1a9f:	00 00 00 
    1aa2:	59                   	pop    %rcx
    1aa3:	41 8b 50 10          	mov    0x10(%r8),%edx
    1aa7:	44 8d 4a ff          	lea    -0x1(%rdx),%r9d
    1aab:	41 21 d1             	and    %edx,%r9d
    1aae:	75 35                	jne    0x1ae5
    1ab0:	49 8b 40 18          	mov    0x18(%r8),%rax
    1ab4:	41 8b 50 0c          	mov    0xc(%r8),%edx
    1ab8:	41 c7 44 24 1c 14 00 	movl   $0x14,0x1c(%r12)
    1abf:	00 00 
    1ac1:	48 ff c0             	inc    %rax
    1ac4:	49 89 44 24 10       	mov    %rax,0x10(%r12)
    1ac9:	8d 42 ff             	lea    -0x1(%rdx),%eax
    1acc:	85 d0                	test   %edx,%eax
    1ace:	75 0b                	jne    0x1adb
    1ad0:	31 c9                	xor    %ecx,%ecx
    1ad2:	be 01 00 00 00       	mov    $0x1,%esi
    1ad7:	85 d2                	test   %edx,%edx
    1ad9:	75 2b                	jne    0x1b06
    1adb:	48 be 93 c3 00 00 00 	movabs $0xc393,%rsi
    1ae2:	00 00 00 
    1ae5:	48 83 c4 18          	add    $0x18,%rsp
    1ae9:	bf 1d 00 00 00       	mov    $0x1d,%edi
    1aee:	31 c0                	xor    %eax,%eax
    1af0:	48 b9 43 86 00 00 00 	movabs $0x8643,%rcx
    1af7:	00 00 00 
    1afa:	5b                   	pop    %rbx
    1afb:	5d                   	pop    %rbp
    1afc:	41 5c                	pop    %r12
    1afe:	41 5d                	pop    %r13
    1b00:	41 5e                	pop    %r14
    1b02:	41 5f                	pop    %r15
    1b04:	ff e1                	jmp    *%rcx
    1b06:	89 f0                	mov    %esi,%eax
    1b08:	d3 e0                	shl    %cl,%eax
    1b0a:	39 c2                	cmp    %eax,%edx
    1b0c:	76 04                	jbe    0x1b12
    1b0e:	ff c1                	inc    %ecx
    1b10:	eb f4                	jmp    0x1b06
    1b12:	44 89 4c 24 08       	mov    %r9d,0x8(%rsp)
    1b17:	49 89 e8             	mov    %rbp,%r8
    1b1a:	4c 89 fa             	mov    %r15,%rdx
    1b1d:	be 13 02 00 00       	mov    $0x213,%esi
    1b22:	41 89 4c 24 18       	mov    %ecx,0x18(%r12)
    1b27:	4c 89 f7             	mov    %r14,%rdi
    1b2a:	31 c0                	xor    %eax,%eax
    1b2c:	48 b9 aa c3 00 00 00 	movabs $0xc3aa,%rcx
    1b33:	00 00 00 
    1b36:	49 89 5c 24 40       	mov    %rbx,0x40(%r12)
    1b3b:	41 ff d5             	call   *%r13
    1b3e:	44 8b 4c 24 08       	mov    0x8(%rsp),%r9d
    1b43:	48 83 c4 18          	add    $0x18,%rsp
    1b47:	44 89 c8             	mov    %r9d,%eax
    1b4a:	5b                   	pop    %rbx
    1b4b:	5d                   	pop    %rbp
    1b4c:	41 5c                	pop    %r12
    1b4e:	41 5d                	pop    %r13
    1b50:	41 5e                	pop    %r14
    1b52:	41 5f                	pop    %r15
    1b54:	c3                   	ret    
    1b55:	41 57                	push   %r15
    1b57:	41 56                	push   %r14
    1b59:	41 55                	push   %r13
    1b5b:	49 bd 50 f8 00 00 00 	movabs $0xf850,%r13
    1b62:	00 00 00 
    1b65:	41 54                	push   %r12
    1b67:	55                   	push   %rbp
    1b68:	48 89 f5             	mov    %rsi,%rbp
    1b6b:	53                   	push   %rbx
    1b6c:	48 89 fb             	mov    %rdi,%rbx
    1b6f:	48 83 ec 28          	sub    $0x28,%rsp
    1b73:	49 8b 45 00          	mov    0x0(%r13),%rax
    1b77:	48 89 44 24 18       	mov    %rax,0x18(%rsp)
    1b7c:	31 c0                	xor    %eax,%eax
    1b7e:	85 d2                	test   %edx,%edx
    1b80:	74 27                	je     0x1ba9
    1b82:	ff ca                	dec    %edx
    1b84:	0f 85 c3 01 00 00    	jne    0x1d4d
    1b8a:	48 b8 20 f8 00 00 00 	movabs $0xf820,%rax
    1b91:	00 00 00 
    1b94:	45 31 f6             	xor    %r14d,%r14d
    1b97:	4c 8b 20             	mov    (%rax),%r12
    1b9a:	49 bf d3 c3 00 00 00 	movabs $0xc3d3,%r15
    1ba1:	00 00 00 
    1ba4:	e9 0a 01 00 00       	jmp    0x1cb3
    1ba9:	48 b8 18 f8 00 00 00 	movabs $0xf818,%rax
    1bb0:	00 00 00 
    1bb3:	4c 8b 20             	mov    (%rax),%r12
    1bb6:	45 31 f6             	xor    %r14d,%r14d
    1bb9:	49 bf c0 c3 00 00 00 	movabs $0xc3c0,%r15
    1bc0:	00 00 00 
    1bc3:	4d 85 e4             	test   %r12,%r12
    1bc6:	0f 84 0b 01 00 00    	je     0x1cd7
    1bcc:	44 89 f1             	mov    %r14d,%ecx
    1bcf:	4c 89 fa             	mov    %r15,%rdx
    1bd2:	be 10 00 00 00       	mov    $0x10,%esi
    1bd7:	31 c0                	xor    %eax,%eax
    1bd9:	49 b8 cb a7 00 00 00 	movabs $0xa7cb,%r8
    1be0:	00 00 00 
    1be3:	48 8d 7c 24 08       	lea    0x8(%rsp),%rdi
    1be8:	41 ff d0             	call   *%r8
    1beb:	be 9d 01 00 00       	mov    $0x19d,%esi
    1bf0:	31 c0                	xor    %eax,%eax
    1bf2:	4c 8d 44 24 08       	lea    0x8(%rsp),%r8
    1bf7:	48 bf 00 c3 00 00 00 	movabs $0xc300,%rdi
    1bfe:	00 00 00 
    1c01:	48 b9 c5 c3 00 00 00 	movabs $0xc3c5,%rcx
    1c08:	00 00 00 
    1c0b:	48 ba f8 c2 00 00 00 	movabs $0xc2f8,%rdx
    1c12:	00 00 00 
    1c15:	49 b9 b7 a6 00 00 00 	movabs $0xa6b7,%r9
    1c1c:	00 00 00 
    1c1f:	41 ff d1             	call   *%r9
    1c22:	48 89 ee             	mov    %rbp,%rsi
    1c25:	48 8d 7c 24 08       	lea    0x8(%rsp),%rdi
    1c2a:	ff d3                	call   *%rbx
    1c2c:	85 c0                	test   %eax,%eax
    1c2e:	74 0a                	je     0x1c3a
    1c30:	b8 01 00 00 00       	mov    $0x1,%eax
    1c35:	e9 13 01 00 00       	jmp    0x1d4d
    1c3a:	4d 8b 64 24 20       	mov    0x20(%r12),%r12
    1c3f:	41 ff c6             	inc    %r14d
    1c42:	e9 7c ff ff ff       	jmp    0x1bc3
    1c47:	44 89 f1             	mov    %r14d,%ecx
    1c4a:	4c 89 fa             	mov    %r15,%rdx
    1c4d:	be 10 00 00 00       	mov    $0x10,%esi
    1c52:	31 c0                	xor    %eax,%eax
    1c54:	49 b8 cb a7 00 00 00 	movabs $0xa7cb,%r8
    1c5b:	00 00 00 
    1c5e:	48 8d 7c 24 08       	lea    0x8(%rsp),%rdi
    1c63:	41 ff d0             	call   *%r8
    1c66:	be a6 01 00 00       	mov    $0x1a6,%esi
    1c6b:	31 c0                	xor    %eax,%eax
    1c6d:	4c 8d 44 24 08       	lea    0x8(%rsp),%r8
    1c72:	48 bf 00 c3 00 00 00 	movabs $0xc300,%rdi
    1c79:	00 00 00 
    1c7c:	48 b9 c5 c3 00 00 00 	movabs $0xc3c5,%rcx
    1c83:	00 00 00 
    1c86:	48 ba f8 c2 00 00 00 	movabs $0xc2f8,%rdx
    1c8d:	00 00 00 
    1c90:	49 b9 b7 a6 00 00 00 	movabs $0xa6b7,%r9
    1c97:	00 00 00 
    1c9a:	41 ff d1             	call   *%r9
    1c9d:	48 89 ee             	mov    %rbp,%rsi
    1ca0:	48 8d 7c 24 08       	lea    0x8(%rsp),%rdi
    1ca5:	ff d3                	call   *%rbx
    1ca7:	85 c0                	test   %eax,%eax
    1ca9:	75 85                	jne    0x1c30
    1cab:	4d 8b 64 24 20       	mov    0x20(%r12),%r12
    1cb0:	41 ff c6             	inc    %r14d
    1cb3:	4d 85 e4             	test   %r12,%r12
    1cb6:	75 8f                	jne    0x1c47
    1cb8:	48 b8 10 f8 00 00 00 	movabs $0xf810,%rax
    1cbf:	00 00 00 
    1cc2:	4c 8b 20             	mov    (%rax),%r12
    1cc5:	45 31 f6             	xor    %r14d,%r14d
    1cc8:	49 bf d8 c3 00 00 00 	movabs $0xc3d8,%r15
    1ccf:	00 00 00 
    1cd2:	4d 85 e4             	test   %r12,%r12
    1cd5:	75 04                	jne    0x1cdb
    1cd7:	31 c0                	xor    %eax,%eax
    1cd9:	eb 72                	jmp    0x1d4d
    1cdb:	44 89 f1             	mov    %r14d,%ecx
    1cde:	4c 89 fa             	mov    %r15,%rdx
    1ce1:	be 10 00 00 00       	mov    $0x10,%esi
    1ce6:	31 c0                	xor    %eax,%eax
    1ce8:	49 b8 cb a7 00 00 00 	movabs $0xa7cb,%r8
    1cef:	00 00 00 
    1cf2:	48 8d 7c 24 08       	lea    0x8(%rsp),%rdi
    1cf7:	41 ff d0             	call   *%r8
    1cfa:	be ae 01 00 00       	mov    $0x1ae,%esi
    1cff:	31 c0                	xor    %eax,%eax
    1d01:	4c 8d 44 24 08       	lea    0x8(%rsp),%r8
    1d06:	48 bf 00 c3 00 00 00 	movabs $0xc300,%rdi
    1d0d:	00 00 00 
    1d10:	48 b9 c5 c3 00 00 00 	movabs $0xc3c5,%rcx
    1d17:	00 00 00 
    1d1a:	48 ba f8 c2 00 00 00 	movabs $0xc2f8,%rdx
    1d21:	00 00 00 
    1d24:	49 b9 b7 a6 00 00 00 	movabs $0xa6b7,%r9
    1d2b:	00 00 00 
    1d2e:	41 ff d1             	call   *%r9
    1d31:	48 89 ee             	mov    %rbp,%rsi
    1d34:	48 8d 7c 24 08       	lea    0x8(%rsp),%rdi
    1d39:	ff d3                	call   *%rbx
    1d3b:	85 c0                	test   %eax,%eax
    1d3d:	0f 85 ed fe ff ff    	jne    0x1c30
    1d43:	4d 8b 64 24 20       	mov    0x20(%r12),%r12
    1d48:	41 ff c6             	inc    %r14d
    1d4b:	eb 85                	jmp    0x1cd2
    1d4d:	48 8b 54 24 18       	mov    0x18(%rsp),%rdx
    1d52:	49 2b 55 00          	sub    0x0(%r13),%rdx
    1d56:	74 0c                	je     0x1d64
    1d58:	48 b8 40 3e 00 00 00 	movabs $0x3e40,%rax
    1d5f:	00 00 00 
    1d62:	ff d0                	call   *%rax
    1d64:	48 83 c4 28          	add    $0x28,%rsp
    1d68:	5b                   	pop    %rbx
    1d69:	5d                   	pop    %rbp
    1d6a:	41 5c                	pop    %r12
    1d6c:	41 5d                	pop    %r13
    1d6e:	41 5e                	pop    %r14
    1d70:	41 5f                	pop    %r15
    1d72:	c3                   	ret    
    1d73:	41 57                	push   %r15
    1d75:	31 d2                	xor    %edx,%edx
    1d77:	49 bf a0 e2 00 00 00 	movabs $0xe2a0,%r15
    1d7e:	00 00 00 
    1d81:	bf 02 00 00 00       	mov    $0x2,%edi
    1d86:	48 b8 ef 2c 00 00 00 	movabs $0x2cef,%rax
    1d8d:	00 00 00 
    1d90:	41 56                	push   %r14
    1d92:	4c 89 fe             	mov    %r15,%rsi
    1d95:	41 55                	push   %r13
    1d97:	41 54                	push   %r12
    1d99:	55                   	push   %rbp
    1d9a:	53                   	push   %rbx
    1d9b:	48 83 ec 28          	sub    $0x28,%rsp
    1d9f:	48 8d 4c 24 18       	lea    0x18(%rsp),%rcx
    1da4:	ff d0                	call   *%rax
    1da6:	48 85 c0             	test   %rax,%rax
    1da9:	75 08                	jne    0x1db3
    1dab:	45 31 e4             	xor    %r12d,%r12d
    1dae:	e9 04 01 00 00       	jmp    0x1eb7
    1db3:	48 89 c5             	mov    %rax,%rbp
    1db6:	48 89 c3             	mov    %rax,%rbx
    1db9:	45 31 e4             	xor    %r12d,%r12d
    1dbc:	48 8b 44 24 18       	mov    0x18(%rsp),%rax
    1dc1:	48 8d 50 ff          	lea    -0x1(%rax),%rdx
    1dc5:	48 89 54 24 18       	mov    %rdx,0x18(%rsp)
    1dca:	48 85 c0             	test   %rax,%rax
    1dcd:	0f 84 d5 00 00 00    	je     0x1ea8
    1dd3:	48 b8 7d 35 00 00 00 	movabs $0x357d,%rax
    1dda:	00 00 00 
    1ddd:	48 8b 3b             	mov    (%rbx),%rdi
    1de0:	ff d0                	call   *%rax
    1de2:	49 89 c5             	mov    %rax,%r13
    1de5:	48 85 c0             	test   %rax,%rax
    1de8:	0f 84 b1 00 00 00    	je     0x1e9f
    1dee:	48 89 c7             	mov    %rax,%rdi
    1df1:	48 b8 98 35 00 00 00 	movabs $0x3598,%rax
    1df8:	00 00 00 
    1dfb:	ff d0                	call   *%rax
    1dfd:	49 89 c6             	mov    %rax,%r14
    1e00:	48 85 c0             	test   %rax,%rax
    1e03:	0f 84 96 00 00 00    	je     0x1e9f
    1e09:	ba 02 00 00 00       	mov    $0x2,%edx
    1e0e:	48 8b 3b             	mov    (%rbx),%rdi
    1e11:	4c 89 fe             	mov    %r15,%rsi
    1e14:	48 b8 ec 2d 00 00 00 	movabs $0x2dec,%rax
    1e1b:	00 00 00 
    1e1e:	ff d0                	call   *%rax
    1e20:	48 89 c2             	mov    %rax,%rdx
    1e23:	48 85 c0             	test   %rax,%rax
    1e26:	74 77                	je     0x1e9f
    1e28:	48 8b 40 08          	mov    0x8(%rax),%rax
    1e2c:	48 85 c0             	test   %rax,%rax
    1e2f:	74 0e                	je     0x1e3f
    1e31:	81 38 45 58 50 69    	cmpl   $0x69505845,(%rax)
    1e37:	75 06                	jne    0x1e3f
    1e39:	83 78 0c 01          	cmpl   $0x1,0xc(%rax)
    1e3d:	74 60                	je     0x1e9f
    1e3f:	48 89 54 24 08       	mov    %rdx,0x8(%rsp)
    1e44:	bf 28 00 00 00       	mov    $0x28,%edi
    1e49:	48 b8 c3 5b 00 00 00 	movabs $0x5bc3,%rax
    1e50:	00 00 00 
    1e53:	ff d0                	call   *%rax
    1e55:	48 8b 54 24 08       	mov    0x8(%rsp),%rdx
    1e5a:	48 85 c0             	test   %rax,%rax
    1e5d:	75 27                	jne    0x1e86
    1e5f:	48 bb 12 5c 00 00 00 	movabs $0x5c12,%rbx
    1e66:	00 00 00 
    1e69:	48 89 ef             	mov    %rbp,%rdi
    1e6c:	ff d3                	call   *%rbx
    1e6e:	4d 85 e4             	test   %r12,%r12
    1e71:	0f 84 34 ff ff ff    	je     0x1dab
    1e77:	49 8b 6c 24 20       	mov    0x20(%r12),%rbp
    1e7c:	4c 89 e7             	mov    %r12,%rdi
    1e7f:	ff d3                	call   *%rbx
    1e81:	49 89 ec             	mov    %rbp,%r12
    1e84:	eb e8                	jmp    0x1e6e
    1e86:	48 8b 0b             	mov    (%rbx),%rcx
    1e89:	4c 89 68 08          	mov    %r13,0x8(%rax)
    1e8d:	4c 89 70 10          	mov    %r14,0x10(%rax)
    1e91:	48 89 08             	mov    %rcx,(%rax)
    1e94:	48 89 50 18          	mov    %rdx,0x18(%rax)
    1e98:	4c 89 60 20          	mov    %r12,0x20(%rax)
    1e9c:	49 89 c4             	mov    %rax,%r12
    1e9f:	48 83 c3 08          	add    $0x8,%rbx
    1ea3:	e9 14 ff ff ff       	jmp    0x1dbc
    1ea8:	48 b8 12 5c 00 00 00 	movabs $0x5c12,%rax
    1eaf:	00 00 00 
    1eb2:	48 89 ef             	mov    %rbp,%rdi
    1eb5:	ff d0                	call   *%rax
    1eb7:	48 83 c4 28          	add    $0x28,%rsp
    1ebb:	4c 89 e0             	mov    %r12,%rax
    1ebe:	5b                   	pop    %rbx
    1ebf:	5d                   	pop    %rbp
    1ec0:	41 5c                	pop    %r12
    1ec2:	41 5d                	pop    %r13
    1ec4:	41 5e                	pop    %r14
    1ec6:	41 5f                	pop    %r15
    1ec8:	c3                   	ret    
    1ec9:	48 b8 e5 35 00 00 00 	movabs $0x35e5,%rax
    1ed0:	00 00 00 
    1ed3:	41 55                	push   %r13
    1ed5:	41 54                	push   %r12
    1ed7:	49 89 fc             	mov    %rdi,%r12
    1eda:	55                   	push   %rbp
    1edb:	53                   	push   %rbx
    1edc:	48 89 f3             	mov    %rsi,%rbx
    1edf:	51                   	push   %rcx
    1ee0:	48 8b 7e 08          	mov    0x8(%rsi),%rdi
    1ee4:	ff d0                	call   *%rax
    1ee6:	48 85 c0             	test   %rax,%rax
    1ee9:	75 05                	jne    0x1ef0
    1eeb:	45 31 e4             	xor    %r12d,%r12d
    1eee:	eb 56                	jmp    0x1f46
    1ef0:	48 89 c5             	mov    %rax,%rbp
    1ef3:	48 89 c7             	mov    %rax,%rdi
    1ef6:	48 b8 98 35 00 00 00 	movabs $0x3598,%rax
    1efd:	00 00 00 
    1f00:	ff d0                	call   *%rax
    1f02:	48 85 c0             	test   %rax,%rax
    1f05:	74 e4                	je     0x1eeb
    1f07:	49 bd 68 3d 00 00 00 	movabs $0x3d68,%r13
    1f0e:	00 00 00 
    1f11:	c7 00 7f ff 04 00    	movl   $0x4ff7f,(%rax)
    1f17:	4d 85 e4             	test   %r12,%r12
    1f1a:	74 1b                	je     0x1f37
    1f1c:	49 39 dc             	cmp    %rbx,%r12
    1f1f:	75 07                	jne    0x1f28
    1f21:	4d 8b 64 24 20       	mov    0x20(%r12),%r12
    1f26:	eb ef                	jmp    0x1f17
    1f28:	49 8b 7c 24 08       	mov    0x8(%r12),%rdi
    1f2d:	48 89 ee             	mov    %rbp,%rsi
    1f30:	41 ff d5             	call   *%r13
    1f33:	85 c0                	test   %eax,%eax
    1f35:	75 ea                	jne    0x1f21
    1f37:	48 b8 12 5c 00 00 00 	movabs $0x5c12,%rax
    1f3e:	00 00 00 
    1f41:	48 89 ef             	mov    %rbp,%rdi
    1f44:	ff d0                	call   *%rax
    1f46:	5a                   	pop    %rdx
    1f47:	4c 89 e0             	mov    %r12,%rax
    1f4a:	5b                   	pop    %rbx
    1f4b:	5d                   	pop    %rbp
    1f4c:	41 5c                	pop    %r12
    1f4e:	41 5d                	pop    %r13
    1f50:	c3                   	ret    
    1f51:	41 56                	push   %r14
    1f53:	49 be 68 3d 00 00 00 	movabs $0x3d68,%r14
    1f5a:	00 00 00 
    1f5d:	41 55                	push   %r13
    1f5f:	49 89 d5             	mov    %rdx,%r13
    1f62:	41 54                	push   %r12
    1f64:	45 31 e4             	xor    %r12d,%r12d
    1f67:	55                   	push   %rbp
    1f68:	48 89 fd             	mov    %rdi,%rbp
    1f6b:	53                   	push   %rbx
    1f6c:	48 89 f3             	mov    %rsi,%rbx
    1f6f:	48 85 db             	test   %rbx,%rbx
    1f72:	74 40                	je     0x1fb4
    1f74:	48 8b 7b 08          	mov    0x8(%rbx),%rdi
    1f78:	48 89 ee             	mov    %rbp,%rsi
    1f7b:	41 ff d6             	call   *%r14
    1f7e:	85 c0                	test   %eax,%eax
    1f80:	75 29                	jne    0x1fab
    1f82:	44 89 e1             	mov    %r12d,%ecx
    1f85:	be 0c 00 00 00       	mov    $0xc,%esi
    1f8a:	4c 89 ef             	mov    %r13,%rdi
    1f8d:	48 ba dd c3 00 00 00 	movabs $0xc3dd,%rdx
    1f94:	00 00 00 
    1f97:	49 b8 cb a7 00 00 00 	movabs $0xa7cb,%r8
    1f9e:	00 00 00 
    1fa1:	41 ff d0             	call   *%r8
    1fa4:	b8 01 00 00 00       	mov    $0x1,%eax
    1fa9:	eb 0b                	jmp    0x1fb6
    1fab:	48 8b 5b 20          	mov    0x20(%rbx),%rbx
    1faf:	41 ff c4             	inc    %r12d
    1fb2:	eb bb                	jmp    0x1f6f
    1fb4:	31 c0                	xor    %eax,%eax
    1fb6:	5b                   	pop    %rbx
    1fb7:	5d                   	pop    %rbp
    1fb8:	41 5c                	pop    %r12
    1fba:	41 5d                	pop    %r13
    1fbc:	41 5e                	pop    %r14
    1fbe:	c3                   	ret    
    1fbf:	48 b8 18 f8 00 00 00 	movabs $0xf818,%rax
    1fc6:	00 00 00 
    1fc9:	41 55                	push   %r13
    1fcb:	4c 8d 6e 01          	lea    0x1(%rsi),%r13
    1fcf:	41 54                	push   %r12
    1fd1:	4c 89 ea             	mov    %r13,%rdx
    1fd4:	49 bc 51 1f 00 00 00 	movabs $0x1f51,%r12
    1fdb:	00 00 00 
    1fde:	55                   	push   %rbp
    1fdf:	48 89 fd             	mov    %rdi,%rbp
    1fe2:	53                   	push   %rbx
    1fe3:	48 89 f3             	mov    %rsi,%rbx
    1fe6:	51                   	push   %rcx
    1fe7:	48 8b 30             	mov    (%rax),%rsi
    1fea:	41 ff d4             	call   *%r12
    1fed:	85 c0                	test   %eax,%eax
    1fef:	74 05                	je     0x1ff6
    1ff1:	c6 03 68             	movb   $0x68,(%rbx)
    1ff4:	eb 3c                	jmp    0x2032
    1ff6:	48 b8 20 f8 00 00 00 	movabs $0xf820,%rax
    1ffd:	00 00 00 
    2000:	4c 89 ea             	mov    %r13,%rdx
    2003:	48 8b 30             	mov    (%rax),%rsi
    2006:	48 89 ef             	mov    %rbp,%rdi
    2009:	41 ff d4             	call   *%r12
    200c:	85 c0                	test   %eax,%eax
    200e:	74 05                	je     0x2015
    2010:	c6 03 66             	movb   $0x66,(%rbx)
    2013:	eb 1d                	jmp    0x2032
    2015:	48 b8 10 f8 00 00 00 	movabs $0xf810,%rax
    201c:	00 00 00 
    201f:	4c 89 ea             	mov    %r13,%rdx
    2022:	48 8b 30             	mov    (%rax),%rsi
    2025:	48 89 ef             	mov    %rbp,%rdi
    2028:	41 ff d4             	call   *%r12
    202b:	85 c0                	test   %eax,%eax
    202d:	74 08                	je     0x2037
    202f:	c6 03 63             	movb   $0x63,(%rbx)
    2032:	b8 01 00 00 00       	mov    $0x1,%eax
    2037:	5a                   	pop    %rdx
    2038:	5b                   	pop    %rbx
    2039:	5d                   	pop    %rbp
    203a:	41 5c                	pop    %r12
    203c:	41 5d                	pop    %r13
    203e:	c3                   	ret    
    203f:	41 55                	push   %r13
    2041:	41 54                	push   %r12
    2043:	49 89 f4             	mov    %rsi,%r12
    2046:	55                   	push   %rbp
    2047:	48 bd 98 35 00 00 00 	movabs $0x3598,%rbp
    204e:	00 00 00 
    2051:	53                   	push   %rbx
    2052:	48 89 fb             	mov    %rdi,%rbx
    2055:	52                   	push   %rdx
    2056:	48 83 3b 00          	cmpq   $0x0,(%rbx)
    205a:	74 41                	je     0x209d
    205c:	49 8b 7c 24 08       	mov    0x8(%r12),%rdi
    2061:	ff d5                	call   *%rbp
    2063:	49 89 c5             	mov    %rax,%r13
    2066:	48 8b 03             	mov    (%rbx),%rax
    2069:	48 8b 78 08          	mov    0x8(%rax),%rdi
    206d:	ff d5                	call   *%rbp
    206f:	4c 89 ee             	mov    %r13,%rsi
    2072:	49 bd 68 3d 00 00 00 	movabs $0x3d68,%r13
    2079:	00 00 00 
    207c:	48 89 c7             	mov    %rax,%rdi
    207f:	41 ff d5             	call   *%r13
    2082:	85 c0                	test   %eax,%eax
    2084:	75 13                	jne    0x2099
    2086:	48 8b 03             	mov    (%rbx),%rax
    2089:	49 8b 74 24 08       	mov    0x8(%r12),%rsi
    208e:	48 8b 78 08          	mov    0x8(%rax),%rdi
    2092:	41 ff d5             	call   *%r13
    2095:	85 c0                	test   %eax,%eax
    2097:	74 4c                	je     0x20e5
    2099:	85 c0                	test   %eax,%eax
    209b:	7e 3c                	jle    0x20d9
    209d:	48 b8 c3 5b 00 00 00 	movabs $0x5bc3,%rax
    20a4:	00 00 00 
    20a7:	bf 28 00 00 00       	mov    $0x28,%edi
    20ac:	ff d0                	call   *%rax
    20ae:	48 89 c5             	mov    %rax,%rbp
    20b1:	48 85 c0             	test   %rax,%rax
    20b4:	74 2f                	je     0x20e5
    20b6:	48 89 c7             	mov    %rax,%rdi
    20b9:	ba 28 00 00 00       	mov    $0x28,%edx
    20be:	4c 89 e6             	mov    %r12,%rsi
    20c1:	48 b8 59 97 00 00 00 	movabs $0x9759,%rax
    20c8:	00 00 00 
    20cb:	ff d0                	call   *%rax
    20cd:	48 8b 03             	mov    (%rbx),%rax
    20d0:	48 89 45 20          	mov    %rax,0x20(%rbp)
    20d4:	48 89 2b             	mov    %rbp,(%rbx)
    20d7:	eb 0c                	jmp    0x20e5
    20d9:	48 8b 1b             	mov    (%rbx),%rbx
    20dc:	48 83 c3 20          	add    $0x20,%rbx
    20e0:	e9 71 ff ff ff       	jmp    0x2056
    20e5:	58                   	pop    %rax
    20e6:	5b                   	pop    %rbx
    20e7:	5d                   	pop    %rbp
    20e8:	41 5c                	pop    %r12
    20ea:	41 5d                	pop    %r13
    20ec:	c3                   	ret    
    20ed:	53                   	push   %rbx
    20ee:	48 89 f9             	mov    %rdi,%rcx
    20f1:	48 89 d3             	mov    %rdx,%rbx
    20f4:	48 89 f7             	mov    %rsi,%rdi
    20f7:	48 89 f0             	mov    %rsi,%rax
    20fa:	31 d2                	xor    %edx,%edx
    20fc:	48 85 c0             	test   %rax,%rax
    20ff:	74 0a                	je     0x210b
    2101:	48 03 50 08          	add    0x8(%rax),%rdx
    2105:	48 8b 40 28          	mov    0x28(%rax),%rax
    2109:	eb f1                	jmp    0x20fc
    210b:	48 8b 73 08          	mov    0x8(%rbx),%rsi
    210f:	8b 49 18             	mov    0x18(%rcx),%ecx
    2112:	45 31 c0             	xor    %r8d,%r8d
    2115:	48 8b 46 08          	mov    0x8(%rsi),%rax
    2119:	83 e9 09             	sub    $0x9,%ecx
    211c:	48 d3 e0             	shl    %cl,%rax
    211f:	48 39 d0             	cmp    %rdx,%rax
    2122:	75 22                	jne    0x2146
    2124:	48 8b 46 10          	mov    0x10(%rsi),%rax
    2128:	48 d3 e0             	shl    %cl,%rax
    212b:	48 3b 47 10          	cmp    0x10(%rdi),%rax
    212f:	75 15                	jne    0x2146
    2131:	48 b8 8d b3 00 00 00 	movabs $0xb38d,%rax
    2138:	00 00 00 
    213b:	ff d0                	call   *%rax
    213d:	41 b8 01 00 00 00    	mov    $0x1,%r8d
    2143:	48 89 03             	mov    %rax,(%rbx)
    2146:	44 89 c0             	mov    %r8d,%eax
    2149:	5b                   	pop    %rbx
    214a:	c3                   	ret    
    214b:	41 57                	push   %r15
    214d:	48 89 f8             	mov    %rdi,%rax
    2150:	41 56                	push   %r14
    2152:	41 55                	push   %r13
    2154:	41 54                	push   %r12
    2156:	55                   	push   %rbp
    2157:	48 89 cd             	mov    %rcx,%rbp
    215a:	53                   	push   %rbx
    215b:	49 89 ef             	mov    %rbp,%r15
    215e:	44 89 c3             	mov    %r8d,%ebx
    2161:	48 83 ec 18          	sub    $0x18,%rsp
    2165:	48 8b 4f 40          	mov    0x40(%rdi),%rcx
    2169:	48 89 74 24 08       	mov    %rsi,0x8(%rsp)
    216e:	4c 8b 69 18          	mov    0x18(%rcx),%r13
    2172:	49 8b 4d 08          	mov    0x8(%r13),%rcx
    2176:	8b 79 10             	mov    0x10(%rcx),%edi
    2179:	b9 01 00 00 00       	mov    $0x1,%ecx
    217e:	85 ff                	test   %edi,%edi
    2180:	48 0f 44 f9          	cmove  %rcx,%rdi
    2184:	8b 48 18             	mov    0x18(%rax),%ecx
    2187:	4c 8d 77 ff          	lea    -0x1(%rdi),%r14
    218b:	48 d3 e2             	shl    %cl,%rdx
    218e:	49 89 d4             	mov    %rdx,%r12
    2191:	49 21 ee             	and    %rbp,%r14
    2194:	74 3e                	je     0x21d4
    2196:	48 b8 62 59 00 00 00 	movabs $0x5962,%rax
    219d:	00 00 00 
    21a0:	48 89 d6             	mov    %rdx,%rsi
    21a3:	ff d0                	call   *%rax
    21a5:	49 89 c7             	mov    %rax,%r15
    21a8:	48 b8 09 00 00 00 00 	movabs $0x8000000000000009,%rax
    21af:	00 00 80 
    21b2:	48 89 04 24          	mov    %rax,(%rsp)
    21b6:	4d 85 ff             	test   %r15,%r15
    21b9:	74 75                	je     0x2230
    21bb:	85 db                	test   %ebx,%ebx
    21bd:	74 15                	je     0x21d4
    21bf:	4c 89 e2             	mov    %r12,%rdx
    21c2:	48 89 ee             	mov    %rbp,%rsi
    21c5:	4c 89 ff             	mov    %r15,%rdi
    21c8:	48 b8 59 97 00 00 00 	movabs $0x9759,%rax
    21cf:	00 00 00 
    21d2:	ff d0                	call   *%rax
    21d4:	49 8b 45 08          	mov    0x8(%r13),%rax
    21d8:	49 8b 7d 20          	mov    0x20(%r13),%rdi
    21dc:	85 db                	test   %ebx,%ebx
    21de:	4d 89 f9             	mov    %r15,%r9
    21e1:	49 0f 44 7d 18       	cmove  0x18(%r13),%rdi
    21e6:	48 8b 4c 24 08       	mov    0x8(%rsp),%rcx
    21eb:	4d 89 e0             	mov    %r12,%r8
    21ee:	4c 89 ee             	mov    %r13,%rsi
    21f1:	8b 10                	mov    (%rax),%edx
    21f3:	48 b8 c3 11 00 00 00 	movabs $0x11c3,%rax
    21fa:	00 00 00 
    21fd:	ff d0                	call   *%rax
    21ff:	48 89 04 24          	mov    %rax,(%rsp)
    2203:	4d 85 f6             	test   %r14,%r14
    2206:	74 28                	je     0x2230
    2208:	85 db                	test   %ebx,%ebx
    220a:	75 15                	jne    0x2221
    220c:	4c 89 e2             	mov    %r12,%rdx
    220f:	4c 89 fe             	mov    %r15,%rsi
    2212:	48 89 ef             	mov    %rbp,%rdi
    2215:	48 b8 59 97 00 00 00 	movabs $0x9759,%rax
    221c:	00 00 00 
    221f:	ff d0                	call   *%rax
    2221:	48 b8 12 5c 00 00 00 	movabs $0x5c12,%rax
    2228:	00 00 00 
    222b:	4c 89 ff             	mov    %r15,%rdi
    222e:	ff d0                	call   *%rax
    2230:	48 8b 04 24          	mov    (%rsp),%rax
    2234:	48 83 c4 18          	add    $0x18,%rsp
    2238:	5b                   	pop    %rbx
    2239:	5d                   	pop    %rbp
    223a:	41 5c                	pop    %r12
    223c:	41 5d                	pop    %r13
    223e:	41 5e                	pop    %r14
    2240:	41 5f                	pop    %r15
    2242:	c3                   	ret    
    2243:	41 56                	push   %r14
    2245:	49 89 ce             	mov    %rcx,%r14
    2248:	49 89 f1             	mov    %rsi,%r9
    224b:	49 89 d0             	mov    %rdx,%r8
    224e:	48 b9 e1 c3 00 00 00 	movabs $0xc3e1,%rcx
    2255:	00 00 00 
    2258:	41 55                	push   %r13
    225a:	49 89 d5             	mov    %rdx,%r13
    225d:	31 c0                	xor    %eax,%eax
    225f:	48 ba f8 c2 00 00 00 	movabs $0xc2f8,%rdx
    2266:	00 00 00 
    2269:	41 54                	push   %r12
    226b:	49 89 f4             	mov    %rsi,%r12
    226e:	49 ba b7 a6 00 00 00 	movabs $0xa6b7,%r10
    2275:	00 00 00 
    2278:	53                   	push   %rbx
    2279:	48 89 fb             	mov    %rdi,%rbx
    227c:	be 68 02 00 00       	mov    $0x268,%esi
    2281:	48 83 ec 10          	sub    $0x10,%rsp
    2285:	ff 37                	push   (%rdi)
    2287:	48 bf 00 c3 00 00 00 	movabs $0xc300,%rdi
    228e:	00 00 00 
    2291:	41 ff d2             	call   *%r10
    2294:	4c 89 ea             	mov    %r13,%rdx
    2297:	4c 89 f1             	mov    %r14,%rcx
    229a:	41 b8 01 00 00 00    	mov    $0x1,%r8d
    22a0:	48 b8 4b 21 00 00 00 	movabs $0x214b,%rax
    22a7:	00 00 00 
    22aa:	4c 89 e6             	mov    %r12,%rsi
    22ad:	48 89 df             	mov    %rbx,%rdi
    22b0:	ff d0                	call   *%rax
    22b2:	41 5d                	pop    %r13
    22b4:	41 5e                	pop    %r14
    22b6:	48 ba 0c 00 00 00 00 	movabs $0x800000000000000c,%rdx
    22bd:	00 00 80 
    22c0:	48 39 d0             	cmp    %rdx,%rax
    22c3:	75 29                	jne    0x22ee
    22c5:	48 8b 13             	mov    (%rbx),%rdx
    22c8:	bf 0b 00 00 00       	mov    $0xb,%edi
    22cd:	41 5a                	pop    %r10
    22cf:	31 c0                	xor    %eax,%eax
    22d1:	48 be 13 c4 00 00 00 	movabs $0xc413,%rsi
    22d8:	00 00 00 
    22db:	5b                   	pop    %rbx
    22dc:	41 5c                	pop    %r12
    22de:	48 b9 43 86 00 00 00 	movabs $0x8643,%rcx
    22e5:	00 00 00 
    22e8:	41 5d                	pop    %r13
    22ea:	41 5e                	pop    %r14
    22ec:	ff e1                	jmp    *%rcx
    22ee:	48 85 c0             	test   %rax,%rax
    22f1:	74 2d                	je     0x2320
    22f3:	48 8b 0b             	mov    (%rbx),%rcx
    22f6:	4c 89 e2             	mov    %r12,%rdx
    22f9:	41 59                	pop    %r9
    22fb:	bf 0f 00 00 00       	mov    $0xf,%edi
    2300:	48 be 24 c4 00 00 00 	movabs $0xc424,%rsi
    2307:	00 00 00 
    230a:	5b                   	pop    %rbx
    230b:	31 c0                	xor    %eax,%eax
    230d:	41 5c                	pop    %r12
    230f:	49 b8 43 86 00 00 00 	movabs $0x8643,%r8
    2316:	00 00 00 
    2319:	41 5d                	pop    %r13
    231b:	41 5e                	pop    %r14
    231d:	41 ff e0             	jmp    *%r8
    2320:	5a                   	pop    %rdx
    2321:	31 c0                	xor    %eax,%eax
    2323:	5b                   	pop    %rbx
    2324:	41 5c                	pop    %r12
    2326:	41 5d                	pop    %r13
    2328:	41 5e                	pop    %r14
    232a:	c3                   	ret    
    232b:	41 56                	push   %r14
    232d:	49 89 ce             	mov    %rcx,%r14
    2330:	49 89 f1             	mov    %rsi,%r9
    2333:	49 89 d0             	mov    %rdx,%r8
    2336:	48 b9 4a c4 00 00 00 	movabs $0xc44a,%rcx
    233d:	00 00 00 
    2340:	41 55                	push   %r13
    2342:	49 89 d5             	mov    %rdx,%r13
    2345:	31 c0                	xor    %eax,%eax
    2347:	48 ba f8 c2 00 00 00 	movabs $0xc2f8,%rdx
    234e:	00 00 00 
    2351:	41 54                	push   %r12
    2353:	49 89 f4             	mov    %rsi,%r12
    2356:	49 ba b7 a6 00 00 00 	movabs $0xa6b7,%r10
    235d:	00 00 00 
    2360:	53                   	push   %rbx
    2361:	48 89 fb             	mov    %rdi,%rbx
    2364:	be 51 02 00 00       	mov    $0x251,%esi
    2369:	48 83 ec 10          	sub    $0x10,%rsp
    236d:	ff 37                	push   (%rdi)
    236f:	48 bf 00 c3 00 00 00 	movabs $0xc300,%rdi
    2376:	00 00 00 
    2379:	41 ff d2             	call   *%r10
    237c:	4c 89 ea             	mov    %r13,%rdx
    237f:	4c 89 f1             	mov    %r14,%rcx
    2382:	45 31 c0             	xor    %r8d,%r8d
    2385:	48 b8 4b 21 00 00 00 	movabs $0x214b,%rax
    238c:	00 00 00 
    238f:	4c 89 e6             	mov    %r12,%rsi
    2392:	48 89 df             	mov    %rbx,%rdi
    2395:	ff d0                	call   *%rax
    2397:	41 5d                	pop    %r13
    2399:	41 5e                	pop    %r14
    239b:	48 ba 0c 00 00 00 00 	movabs $0x800000000000000c,%rdx
    23a2:	00 00 80 
    23a5:	48 39 d0             	cmp    %rdx,%rax
    23a8:	75 29                	jne    0x23d3
    23aa:	48 8b 13             	mov    (%rbx),%rdx
    23ad:	bf 0b 00 00 00       	mov    $0xb,%edi
    23b2:	41 5a                	pop    %r10
    23b4:	31 c0                	xor    %eax,%eax
    23b6:	48 be 13 c4 00 00 00 	movabs $0xc413,%rsi
    23bd:	00 00 00 
    23c0:	5b                   	pop    %rbx
    23c1:	41 5c                	pop    %r12
    23c3:	48 b9 43 86 00 00 00 	movabs $0x8643,%rcx
    23ca:	00 00 00 
    23cd:	41 5d                	pop    %r13
    23cf:	41 5e                	pop    %r14
    23d1:	ff e1                	jmp    *%rcx
    23d3:	48 85 c0             	test   %rax,%rax
    23d6:	74 2d                	je     0x2405
    23d8:	48 8b 0b             	mov    (%rbx),%rcx
    23db:	4c 89 e2             	mov    %r12,%rdx
    23de:	41 59                	pop    %r9
    23e0:	bf 0e 00 00 00       	mov    $0xe,%edi
    23e5:	48 be 7e c4 00 00 00 	movabs $0xc47e,%rsi
    23ec:	00 00 00 
    23ef:	5b                   	pop    %rbx
    23f0:	31 c0                	xor    %eax,%eax
    23f2:	41 5c                	pop    %r12
    23f4:	49 b8 43 86 00 00 00 	movabs $0x8643,%r8
    23fb:	00 00 00 
    23fe:	41 5d                	pop    %r13
    2400:	41 5e                	pop    %r14
    2402:	41 ff e0             	jmp    *%r8
    2405:	5a                   	pop    %rdx
    2406:	31 c0                	xor    %eax,%eax
    2408:	5b                   	pop    %rbx
    2409:	41 5c                	pop    %r12
    240b:	41 5d                	pop    %r13
    240d:	41 5e                	pop    %r14
    240f:	c3                   	ret    
    2410:	41 57                	push   %r15
    2412:	41 56                	push   %r14
    2414:	41 55                	push   %r13
    2416:	49 bd 50 f8 00 00 00 	movabs $0xf850,%r13
    241d:	00 00 00 
    2420:	41 54                	push   %r12
    2422:	55                   	push   %rbp
    2423:	53                   	push   %rbx
    2424:	48 83 ec 28          	sub    $0x28,%rsp
    2428:	49 8b 45 00          	mov    0x0(%r13),%rax
    242c:	48 89 44 24 18       	mov    %rax,0x18(%rsp)
    2431:	48 b8 a4 18 00 00 00 	movabs $0x18a4,%rax
    2438:	00 00 00 
    243b:	48 a3 18 f9 00 00 00 	movabs %rax,0xf918
    2442:	00 00 00 
    2445:	48 b8 73 1d 00 00 00 	movabs $0x1d73,%rax
    244c:	00 00 00 
    244f:	ff d0                	call   *%rax
    2451:	48 85 c0             	test   %rax,%rax
    2454:	0f 84 c5 01 00 00    	je     0x261f
    245a:	49 be c9 1e 00 00 00 	movabs $0x1ec9,%r14
    2461:	00 00 00 
    2464:	48 89 c5             	mov    %rax,%rbp
    2467:	48 89 c3             	mov    %rax,%rbx
    246a:	48 8b 43 10          	mov    0x10(%rbx),%rax
    246e:	48 85 c0             	test   %rax,%rax
    2471:	0f 84 80 00 00 00    	je     0x24f7
    2477:	8a 10                	mov    (%rax),%dl
    2479:	83 e2 7f             	and    $0x7f,%edx
    247c:	80 fa 04             	cmp    $0x4,%dl
    247f:	75 76                	jne    0x24f7
    2481:	8a 40 01             	mov    0x1(%rax),%al
    2484:	3c 01                	cmp    $0x1,%al
    2486:	74 09                	je     0x2491
    2488:	45 31 ff             	xor    %r15d,%r15d
    248b:	3c 02                	cmp    $0x2,%al
    248d:	74 08                	je     0x2497
    248f:	eb 66                	jmp    0x24f7
    2491:	41 bf 01 00 00 00    	mov    $0x1,%r15d
    2497:	48 89 de             	mov    %rbx,%rsi
    249a:	48 89 ef             	mov    %rbp,%rdi
    249d:	41 ff d6             	call   *%r14
    24a0:	49 89 c4             	mov    %rax,%r12
    24a3:	48 85 c0             	test   %rax,%rax
    24a6:	74 4f                	je     0x24f7
    24a8:	48 89 c6             	mov    %rax,%rsi
    24ab:	48 89 ef             	mov    %rbp,%rdi
    24ae:	41 ff d6             	call   *%r14
    24b1:	48 85 c0             	test   %rax,%rax
    24b4:	75 39                	jne    0x24ef
    24b6:	49 83 7c 24 10 00    	cmpq   $0x0,0x10(%r12)
    24bc:	74 31                	je     0x24ef
    24be:	48 bf 18 f8 00 00 00 	movabs $0xf818,%rdi
    24c5:	00 00 00 
    24c8:	45 85 ff             	test   %r15d,%r15d
    24cb:	4c 89 e6             	mov    %r12,%rsi
    24ce:	48 b8 3f 20 00 00 00 	movabs $0x203f,%rax
    24d5:	00 00 00 
    24d8:	75 0a                	jne    0x24e4
    24da:	48 bf 10 f8 00 00 00 	movabs $0xf810,%rdi
    24e1:	00 00 00 
    24e4:	ff d0                	call   *%rax
    24e6:	49 c7 44 24 10 00 00 	movq   $0x0,0x10(%r12)
    24ed:	00 00 
    24ef:	48 c7 43 10 00 00 00 	movq   $0x0,0x10(%rbx)
    24f6:	00 
    24f7:	48 8b 5b 20          	mov    0x20(%rbx),%rbx
    24fb:	48 85 db             	test   %rbx,%rbx
    24fe:	0f 85 66 ff ff ff    	jne    0x246a
    2504:	49 be 3f 20 00 00 00 	movabs $0x203f,%r14
    250b:	00 00 00 
    250e:	48 89 eb             	mov    %rbp,%rbx
    2511:	4c 8b 63 10          	mov    0x10(%rbx),%r12
    2515:	4d 85 e4             	test   %r12,%r12
    2518:	0f 84 e5 00 00 00    	je     0x2603
    251e:	41 8a 04 24          	mov    (%r12),%al
    2522:	83 e0 7f             	and    $0x7f,%eax
    2525:	3c 04                	cmp    $0x4,%al
    2527:	75 65                	jne    0x258e
    2529:	41 80 7c 24 01 03    	cmpb   $0x3,0x1(%r12)
    252f:	75 5d                	jne    0x258e
    2531:	48 b8 eb 85 05 2b b8 	movabs $0x49a9d8b82b0585eb,%rax
    2538:	d8 a9 49 
    253b:	48 89 44 24 08       	mov    %rax,0x8(%rsp)
    2540:	48 b8 8b 8c e2 1b 01 	movabs $0xb7f2ae011be28c8b,%rax
    2547:	ae f2 b7 
    254a:	48 89 44 24 10       	mov    %rax,0x10(%rsp)
    254f:	66 41 83 7c 24 02 14 	cmpw   $0x14,0x2(%r12)
    2556:	75 36                	jne    0x258e
    2558:	49 8d 7c 24 04       	lea    0x4(%r12),%rdi
    255d:	ba 10 00 00 00       	mov    $0x10,%edx
    2562:	48 8d 74 24 08       	lea    0x8(%rsp),%rsi
    2567:	48 b8 e1 97 00 00 00 	movabs $0x97e1,%rax
    256e:	00 00 00 
    2571:	ff d0                	call   *%rax
    2573:	85 c0                	test   %eax,%eax
    2575:	75 17                	jne    0x258e
    2577:	48 b8 c9 1e 00 00 00 	movabs $0x1ec9,%rax
    257e:	00 00 00 
    2581:	48 89 de             	mov    %rbx,%rsi
    2584:	48 89 ef             	mov    %rbp,%rdi
    2587:	ff d0                	call   *%rax
    2589:	48 85 c0             	test   %rax,%rax
    258c:	75 75                	jne    0x2603
    258e:	48 8b 43 18          	mov    0x18(%rbx),%rax
    2592:	48 8b 50 08          	mov    0x8(%rax),%rdx
    2596:	41 8a 04 24          	mov    (%r12),%al
    259a:	83 e0 7f             	and    $0x7f,%eax
    259d:	3c 02                	cmp    $0x2,%al
    259f:	75 39                	jne    0x25da
    25a1:	41 80 7c 24 01 01    	cmpb   $0x1,0x1(%r12)
    25a7:	75 31                	jne    0x25da
    25a9:	41 8b 44 24 04       	mov    0x4(%r12),%eax
    25ae:	3d d0 41 04 06       	cmp    $0x60441d0,%eax
    25b3:	0f 94 c1             	sete   %cl
    25b6:	3d d0 41 00 07       	cmp    $0x70041d0,%eax
    25bb:	40 0f 94 c6          	sete   %sil
    25bf:	40 08 f1             	or     %sil,%cl
    25c2:	75 07                	jne    0x25cb
    25c4:	3d d1 41 01 07       	cmp    $0x70141d1,%eax
    25c9:	75 0f                	jne    0x25da
    25cb:	48 bf 20 f8 00 00 00 	movabs $0xf820,%rdi
    25d2:	00 00 00 
    25d5:	48 89 de             	mov    %rbx,%rsi
    25d8:	eb 26                	jmp    0x2600
    25da:	80 7a 07 00          	cmpb   $0x0,0x7(%rdx)
    25de:	48 89 de             	mov    %rbx,%rsi
    25e1:	74 13                	je     0x25f6
    25e3:	81 7a 0c 00 02 00 00 	cmpl   $0x200,0xc(%rdx)
    25ea:	48 bf 10 f8 00 00 00 	movabs $0xf810,%rdi
    25f1:	00 00 00 
    25f4:	77 0a                	ja     0x2600
    25f6:	48 bf 18 f8 00 00 00 	movabs $0xf818,%rdi
    25fd:	00 00 00 
    2600:	41 ff d6             	call   *%r14
    2603:	48 8b 5b 20          	mov    0x20(%rbx),%rbx
    2607:	48 85 db             	test   %rbx,%rbx
    260a:	0f 85 01 ff ff ff    	jne    0x2511
    2610:	48 b8 83 18 00 00 00 	movabs $0x1883,%rax
    2617:	00 00 00 
    261a:	48 89 ef             	mov    %rbp,%rdi
    261d:	ff d0                	call   *%rax
    261f:	48 8b 44 24 18       	mov    0x18(%rsp),%rax
    2624:	49 2b 45 00          	sub    0x0(%r13),%rax
    2628:	74 0c                	je     0x2636
    262a:	48 b8 40 3e 00 00 00 	movabs $0x3e40,%rax
    2631:	00 00 00 
    2634:	ff d0                	call   *%rax
    2636:	48 bf 60 e2 00 00 00 	movabs $0xe260,%rdi
    263d:	00 00 00 
    2640:	48 83 c4 28          	add    $0x28,%rsp
    2644:	48 b8 fe 6d 00 00 00 	movabs $0x6dfe,%rax
    264b:	00 00 00 
    264e:	5b                   	pop    %rbx
    264f:	5d                   	pop    %rbp
    2650:	41 5c                	pop    %r12
    2652:	41 5d                	pop    %r13
    2654:	41 5e                	pop    %r14
    2656:	41 5f                	pop    %r15
    2658:	ff e0                	jmp    *%rax
    265a:	41 57                	push   %r15
    265c:	41 56                	push   %r14
    265e:	41 55                	push   %r13
    2660:	41 54                	push   %r12
    2662:	45 31 e4             	xor    %r12d,%r12d
    2665:	55                   	push   %rbp
    2666:	53                   	push   %rbx
    2667:	48 83 ec 18          	sub    $0x18,%rsp
    266b:	48 8b 47 08          	mov    0x8(%rdi),%rax
    266f:	83 78 08 03          	cmpl   $0x3,0x8(%rax)
    2673:	0f 85 1d 01 00 00    	jne    0x2796
    2679:	48 8b 07             	mov    (%rdi),%rax
    267c:	4c 8b 77 40          	mov    0x40(%rdi),%r14
    2680:	48 89 fb             	mov    %rdi,%rbx
    2683:	8a 00                	mov    (%rax),%al
    2685:	3c 66                	cmp    $0x66,%al
    2687:	74 15                	je     0x269e
    2689:	3c 68                	cmp    $0x68,%al
    268b:	74 0a                	je     0x2697
    268d:	3c 63                	cmp    $0x63,%al
    268f:	0f 85 01 01 00 00    	jne    0x2796
    2695:	eb 07                	jmp    0x269e
    2697:	48 83 7f 28 00       	cmpq   $0x0,0x28(%rdi)
    269c:	75 08                	jne    0x26a6
    269e:	4d 8b 26             	mov    (%r14),%r12
    26a1:	e9 f0 00 00 00       	jmp    0x2796
    26a6:	48 b8 73 1d 00 00 00 	movabs $0x1d73,%rax
    26ad:	00 00 00 
    26b0:	49 bf e5 35 00 00 00 	movabs $0x35e5,%r15
    26b7:	00 00 00 
    26ba:	ff d0                	call   *%rax
    26bc:	49 89 c5             	mov    %rax,%r13
    26bf:	49 89 c4             	mov    %rax,%r12
    26c2:	4d 85 e4             	test   %r12,%r12
    26c5:	0f 84 bc 00 00 00    	je     0x2787
    26cb:	49 8b 7c 24 08       	mov    0x8(%r12),%rdi
    26d0:	41 ff d7             	call   *%r15
    26d3:	48 89 c5             	mov    %rax,%rbp
    26d6:	48 85 c0             	test   %rax,%rax
    26d9:	0f 84 9e 00 00 00    	je     0x277d
    26df:	48 89 c7             	mov    %rax,%rdi
    26e2:	48 b8 98 35 00 00 00 	movabs $0x3598,%rax
    26e9:	00 00 00 
    26ec:	ff d0                	call   *%rax
    26ee:	48 85 c0             	test   %rax,%rax
    26f1:	0f 84 86 00 00 00    	je     0x277d
    26f7:	c7 00 7f ff 04 00    	movl   $0x4ff7f,(%rax)
    26fd:	48 89 ef             	mov    %rbp,%rdi
    2700:	49 8b 76 08          	mov    0x8(%r14),%rsi
    2704:	48 b8 68 3d 00 00 00 	movabs $0x3d68,%rax
    270b:	00 00 00 
    270e:	ff d0                	call   *%rax
    2710:	48 89 ef             	mov    %rbp,%rdi
    2713:	48 ba 12 5c 00 00 00 	movabs $0x5c12,%rdx
    271a:	00 00 00 
    271d:	89 44 24 0c          	mov    %eax,0xc(%rsp)
    2721:	ff d2                	call   *%rdx
    2723:	8b 44 24 0c          	mov    0xc(%rsp),%eax
    2727:	85 c0                	test   %eax,%eax
    2729:	75 52                	jne    0x277d
    272b:	49 8b 44 24 10       	mov    0x10(%r12),%rax
    2730:	8a 10                	mov    (%rax),%dl
    2732:	83 e2 7f             	and    $0x7f,%edx
    2735:	80 fa 04             	cmp    $0x4,%dl
    2738:	75 43                	jne    0x277d
    273a:	80 78 01 01          	cmpb   $0x1,0x1(%rax)
    273e:	75 3d                	jne    0x277d
    2740:	48 8b 7b 28          	mov    0x28(%rbx),%rdi
    2744:	31 f6                	xor    %esi,%esi
    2746:	48 89 fa             	mov    %rdi,%rdx
    2749:	48 85 d2             	test   %rdx,%rdx
    274c:	74 0a                	je     0x2758
    274e:	48 03 72 08          	add    0x8(%rdx),%rsi
    2752:	48 8b 52 28          	mov    0x28(%rdx),%rdx
    2756:	eb f1                	jmp    0x2749
    2758:	8b 4b 18             	mov    0x18(%rbx),%ecx
    275b:	48 8b 50 08          	mov    0x8(%rax),%rdx
    275f:	83 e9 09             	sub    $0x9,%ecx
    2762:	48 d3 e2             	shl    %cl,%rdx
    2765:	48 39 f2             	cmp    %rsi,%rdx
    2768:	75 13                	jne    0x277d
    276a:	48 8b 40 10          	mov    0x10(%rax),%rax
    276e:	48 d3 e0             	shl    %cl,%rax
    2771:	48 3b 47 10          	cmp    0x10(%rdi),%rax
    2775:	75 06                	jne    0x277d
    2777:	4d 8b 24 24          	mov    (%r12),%r12
    277b:	eb 0a                	jmp    0x2787
    277d:	4d 8b 64 24 20       	mov    0x20(%r12),%r12
    2782:	e9 3b ff ff ff       	jmp    0x26c2
    2787:	48 b8 83 18 00 00 00 	movabs $0x1883,%rax
    278e:	00 00 00 
    2791:	4c 89 ef             	mov    %r13,%rdi
    2794:	ff d0                	call   *%rax
    2796:	48 83 c4 18          	add    $0x18,%rsp
    279a:	4c 89 e0             	mov    %r12,%rax
    279d:	5b                   	pop    %rbx
    279e:	5d                   	pop    %rbp
    279f:	41 5c                	pop    %r12
    27a1:	41 5d                	pop    %r13
    27a3:	41 5e                	pop    %r14
    27a5:	41 5f                	pop    %r15
    27a7:	c3                   	ret    
    27a8:	41 56                	push   %r14
    27aa:	41 55                	push   %r13
    27ac:	41 54                	push   %r12
    27ae:	55                   	push   %rbp
    27af:	53                   	push   %rbx
    27b0:	48 bb 50 f8 00 00 00 	movabs $0xf850,%rbx
    27b7:	00 00 00 
    27ba:	48 83 ec 40          	sub    $0x40,%rsp
    27be:	48 8b 03             	mov    (%rbx),%rax
    27c1:	48 89 44 24 38       	mov    %rax,0x38(%rsp)
    27c6:	48 b8 7d 35 00 00 00 	movabs $0x357d,%rax
    27cd:	00 00 00 
    27d0:	ff d0                	call   *%rax
    27d2:	48 85 c0             	test   %rax,%rax
    27d5:	0f 84 a4 00 00 00    	je     0x287f
    27db:	48 89 44 24 08       	mov    %rax,0x8(%rsp)
    27e0:	48 89 c7             	mov    %rax,%rdi
    27e3:	48 bd 98 35 00 00 00 	movabs $0x3598,%rbp
    27ea:	00 00 00 
    27ed:	ff d5                	call   *%rbp
    27ef:	49 89 c4             	mov    %rax,%r12
    27f2:	48 85 c0             	test   %rax,%rax
    27f5:	0f 84 84 00 00 00    	je     0x287f
    27fb:	8a 00                	mov    (%rax),%al
    27fd:	48 8b 7c 24 08       	mov    0x8(%rsp),%rdi
    2802:	83 e0 7f             	and    $0x7f,%eax
    2805:	3c 04                	cmp    $0x4,%al
    2807:	0f 85 5c 01 00 00    	jne    0x2969
    280d:	41 8a 44 24 01       	mov    0x1(%r12),%al
    2812:	ff c8                	dec    %eax
    2814:	3c 01                	cmp    $0x1,%al
    2816:	0f 87 4d 01 00 00    	ja     0x2969
    281c:	48 b8 e5 35 00 00 00 	movabs $0x35e5,%rax
    2823:	00 00 00 
    2826:	ff d0                	call   *%rax
    2828:	49 89 c5             	mov    %rax,%r13
    282b:	48 85 c0             	test   %rax,%rax
    282e:	74 4f                	je     0x287f
    2830:	4c 89 ef             	mov    %r13,%rdi
    2833:	ff d5                	call   *%rbp
    2835:	48 85 c0             	test   %rax,%rax
    2838:	74 1d                	je     0x2857
    283a:	8a 10                	mov    (%rax),%dl
    283c:	83 e2 7f             	and    $0x7f,%edx
    283f:	80 fa 04             	cmp    $0x4,%dl
    2842:	75 13                	jne    0x2857
    2844:	8a 48 01             	mov    0x1(%rax),%cl
    2847:	8d 51 ff             	lea    -0x1(%rcx),%edx
    284a:	80 fa 01             	cmp    $0x1,%dl
    284d:	77 08                	ja     0x2857
    284f:	c7 00 7f ff 04 00    	movl   $0x4ff7f,(%rax)
    2855:	eb d9                	jmp    0x2830
    2857:	48 8d 74 24 2b       	lea    0x2b(%rsp),%rsi
    285c:	4c 89 ef             	mov    %r13,%rdi
    285f:	48 b8 bf 1f 00 00 00 	movabs $0x1fbf,%rax
    2866:	00 00 00 
    2869:	49 be 12 5c 00 00 00 	movabs $0x5c12,%r14
    2870:	00 00 00 
    2873:	ff d0                	call   *%rax
    2875:	85 c0                	test   %eax,%eax
    2877:	75 0d                	jne    0x2886
    2879:	4c 89 ef             	mov    %r13,%rdi
    287c:	41 ff d6             	call   *%r14
    287f:	31 c0                	xor    %eax,%eax
    2881:	e9 0d 01 00 00       	jmp    0x2993
    2886:	48 b8 d6 6e 00 00 00 	movabs $0x6ed6,%rax
    288d:	00 00 00 
    2890:	48 8d 7c 24 2b       	lea    0x2b(%rsp),%rdi
    2895:	ff d0                	call   *%rax
    2897:	4c 89 ef             	mov    %r13,%rdi
    289a:	48 89 c5             	mov    %rax,%rbp
    289d:	41 ff d6             	call   *%r14
    28a0:	48 85 ed             	test   %rbp,%rbp
    28a3:	74 da                	je     0x287f
    28a5:	49 83 7c 24 08 00    	cmpq   $0x0,0x8(%r12)
    28ab:	4c 89 64 24 20       	mov    %r12,0x20(%rsp)
    28b0:	49 bd 3c 6e 00 00 00 	movabs $0x6e3c,%r13
    28b7:	00 00 00 
    28ba:	48 c7 44 24 18 00 00 	movq   $0x0,0x18(%rsp)
    28c1:	00 00 
    28c3:	75 34                	jne    0x28f9
    28c5:	8b 45 18             	mov    0x18(%rbp),%eax
    28c8:	4d 8b 64 24 10       	mov    0x10(%r12),%r12
    28cd:	48 89 ef             	mov    %rbp,%rdi
    28d0:	8d 48 f7             	lea    -0x9(%rax),%ecx
    28d3:	48 b8 f5 74 00 00 00 	movabs $0x74f5,%rax
    28da:	00 00 00 
    28dd:	49 d3 e4             	shl    %cl,%r12
    28e0:	ff d0                	call   *%rax
    28e2:	49 39 c4             	cmp    %rax,%r12
    28e5:	75 12                	jne    0x28f9
    28e7:	48 b8 48 9a 00 00 00 	movabs $0x9a48,%rax
    28ee:	00 00 00 
    28f1:	48 8b 7d 00          	mov    0x0(%rbp),%rdi
    28f5:	ff d0                	call   *%rax
    28f7:	eb 5e                	jmp    0x2957
    28f9:	48 8d 54 24 18       	lea    0x18(%rsp),%rdx
    28fe:	48 89 ef             	mov    %rbp,%rdi
    2901:	48 be ed 20 00 00 00 	movabs $0x20ed,%rsi
    2908:	00 00 00 
    290b:	48 b8 19 b3 00 00 00 	movabs $0xb319,%rax
    2912:	00 00 00 
    2915:	ff d0                	call   *%rax
    2917:	48 8b 54 24 18       	mov    0x18(%rsp),%rdx
    291c:	48 85 d2             	test   %rdx,%rdx
    291f:	75 08                	jne    0x2929
    2921:	48 89 ef             	mov    %rbp,%rdi
    2924:	41 ff d5             	call   *%r13
    2927:	eb 59                	jmp    0x2982
    2929:	48 bf a6 c4 00 00 00 	movabs $0xc4a6,%rdi
    2930:	00 00 00 
    2933:	48 8b 75 00          	mov    0x0(%rbp),%rsi
    2937:	31 c0                	xor    %eax,%eax
    2939:	48 b9 a8 a8 00 00 00 	movabs $0xa8a8,%rcx
    2940:	00 00 00 
    2943:	ff d1                	call   *%rcx
    2945:	48 8b 7c 24 18       	mov    0x18(%rsp),%rdi
    294a:	48 89 44 24 08       	mov    %rax,0x8(%rsp)
    294f:	41 ff d6             	call   *%r14
    2952:	48 8b 44 24 08       	mov    0x8(%rsp),%rax
    2957:	48 89 44 24 08       	mov    %rax,0x8(%rsp)
    295c:	48 89 ef             	mov    %rbp,%rdi
    295f:	41 ff d5             	call   *%r13
    2962:	48 8b 44 24 08       	mov    0x8(%rsp),%rax
    2967:	eb 2a                	jmp    0x2993
    2969:	48 b8 bf 1f 00 00 00 	movabs $0x1fbf,%rax
    2970:	00 00 00 
    2973:	48 8d 74 24 2b       	lea    0x2b(%rsp),%rsi
    2978:	ff d0                	call   *%rax
    297a:	85 c0                	test   %eax,%eax
    297c:	0f 84 fd fe ff ff    	je     0x287f
    2982:	48 b8 48 9a 00 00 00 	movabs $0x9a48,%rax
    2989:	00 00 00 
    298c:	48 8d 7c 24 2b       	lea    0x2b(%rsp),%rdi
    2991:	ff d0                	call   *%rax
    2993:	48 8b 54 24 38       	mov    0x38(%rsp),%rdx
    2998:	48 2b 13             	sub    (%rbx),%rdx
    299b:	74 0c                	je     0x29a9
    299d:	48 b8 40 3e 00 00 00 	movabs $0x3e40,%rax
    29a4:	00 00 00 
    29a7:	ff d0                	call   *%rax
    29a9:	48 83 c4 40          	add    $0x40,%rsp
    29ad:	5b                   	pop    %rbx
    29ae:	5d                   	pop    %rbp
    29af:	41 5c                	pop    %r12
    29b1:	41 5d                	pop    %r13
    29b3:	41 5e                	pop    %r14
    29b5:	c3                   	ret    
    29b6:	48 89 f8             	mov    %rdi,%rax
    29b9:	49 89 d0             	mov    %rdx,%r8
    29bc:	31 ff                	xor    %edi,%edi
    29be:	49 83 e8 01          	sub    $0x1,%r8
    29c2:	0f 82 ec 00 00 00    	jb     0x2ab4
    29c8:	0f b7 16             	movzwl (%rsi),%edx
    29cb:	4c 8d 4e 02          	lea    0x2(%rsi),%r9
    29cf:	89 d1                	mov    %edx,%ecx
    29d1:	85 ff                	test   %edi,%edi
    29d3:	74 61                	je     0x2a36
    29d5:	8d 8a 00 24 ff ff    	lea    -0xdc00(%rdx),%ecx
    29db:	81 f9 ff 03 00 00    	cmp    $0x3ff,%ecx
    29e1:	77 46                	ja     0x2a29
    29e3:	81 ef 00 d8 00 00    	sub    $0xd800,%edi
    29e9:	48 83 c0 04          	add    $0x4,%rax
    29ed:	c1 e7 0a             	shl    $0xa,%edi
    29f0:	8d 94 3a 00 24 00 00 	lea    0x2400(%rdx,%rdi,1),%edx
    29f7:	89 d1                	mov    %edx,%ecx
    29f9:	c1 e9 12             	shr    $0x12,%ecx
    29fc:	83 c9 f0             	or     $0xfffffff0,%ecx
    29ff:	88 48 fc             	mov    %cl,-0x4(%rax)
    2a02:	89 d1                	mov    %edx,%ecx
    2a04:	c1 e9 0c             	shr    $0xc,%ecx
    2a07:	83 e1 3f             	and    $0x3f,%ecx
    2a0a:	83 c9 80             	or     $0xffffff80,%ecx
    2a0d:	88 48 fd             	mov    %cl,-0x3(%rax)
    2a10:	89 d1                	mov    %edx,%ecx
    2a12:	83 e2 3f             	and    $0x3f,%edx
    2a15:	c1 e9 06             	shr    $0x6,%ecx
    2a18:	83 ca 80             	or     $0xffffff80,%edx
    2a1b:	83 e1 3f             	and    $0x3f,%ecx
    2a1e:	88 50 ff             	mov    %dl,-0x1(%rax)
    2a21:	83 c9 80             	or     $0xffffff80,%ecx
    2a24:	88 48 fe             	mov    %cl,-0x2(%rax)
    2a27:	eb 09                	jmp    0x2a32
    2a29:	c6 00 3f             	movb   $0x3f,(%rax)
    2a2c:	49 89 f1             	mov    %rsi,%r9
    2a2f:	48 ff c0             	inc    %rax
    2a32:	31 ff                	xor    %edi,%edi
    2a34:	eb 76                	jmp    0x2aac
    2a36:	83 fa 7f             	cmp    $0x7f,%edx
    2a39:	77 04                	ja     0x2a3f
    2a3b:	88 10                	mov    %dl,(%rax)
    2a3d:	eb 3f                	jmp    0x2a7e
    2a3f:	81 fa ff 07 00 00    	cmp    $0x7ff,%edx
    2a45:	77 18                	ja     0x2a5f
    2a47:	c1 ea 06             	shr    $0x6,%edx
    2a4a:	83 e1 3f             	and    $0x3f,%ecx
    2a4d:	48 83 c0 02          	add    $0x2,%rax
    2a51:	83 ca c0             	or     $0xffffffc0,%edx
    2a54:	83 c9 80             	or     $0xffffff80,%ecx
    2a57:	88 50 fe             	mov    %dl,-0x2(%rax)
    2a5a:	88 48 ff             	mov    %cl,-0x1(%rax)
    2a5d:	eb 4d                	jmp    0x2aac
    2a5f:	8d b2 00 28 ff ff    	lea    -0xd800(%rdx),%esi
    2a65:	81 fe ff 03 00 00    	cmp    $0x3ff,%esi
    2a6b:	76 3d                	jbe    0x2aaa
    2a6d:	8d b2 00 24 ff ff    	lea    -0xdc00(%rdx),%esi
    2a73:	81 fe ff 03 00 00    	cmp    $0x3ff,%esi
    2a79:	77 08                	ja     0x2a83
    2a7b:	c6 00 3f             	movb   $0x3f,(%rax)
    2a7e:	48 ff c0             	inc    %rax
    2a81:	eb 29                	jmp    0x2aac
    2a83:	89 d6                	mov    %edx,%esi
    2a85:	c1 ea 06             	shr    $0x6,%edx
    2a88:	83 e1 3f             	and    $0x3f,%ecx
    2a8b:	48 83 c0 03          	add    $0x3,%rax
    2a8f:	c1 ee 0c             	shr    $0xc,%esi
    2a92:	83 e2 3f             	and    $0x3f,%edx
    2a95:	83 c9 80             	or     $0xffffff80,%ecx
    2a98:	83 ce e0             	or     $0xffffffe0,%esi
    2a9b:	83 ca 80             	or     $0xffffff80,%edx
    2a9e:	88 48 ff             	mov    %cl,-0x1(%rax)
    2aa1:	40 88 70 fd          	mov    %sil,-0x3(%rax)
    2aa5:	88 50 fe             	mov    %dl,-0x2(%rax)
    2aa8:	eb 02                	jmp    0x2aac
    2aaa:	89 d7                	mov    %edx,%edi
    2aac:	4c 89 ce             	mov    %r9,%rsi
    2aaf:	e9 0a ff ff ff       	jmp    0x29be
    2ab4:	c3                   	ret    
    2ab5:	41 56                	push   %r14
    2ab7:	41 55                	push   %r13
    2ab9:	49 bd 0a a6 00 00 00 	movabs $0xa60a,%r13
    2ac0:	00 00 00 
    2ac3:	41 54                	push   %r12
    2ac5:	55                   	push   %rbp
    2ac6:	53                   	push   %rbx
    2ac7:	44 0f b7 66 02       	movzwl 0x2(%rsi),%r12d
    2acc:	48 89 f3             	mov    %rsi,%rbx
    2acf:	0f b7 4e 08          	movzwl 0x8(%rsi),%ecx
    2ad3:	8b 56 04             	mov    0x4(%rsi),%edx
    2ad6:	41 83 ec 14          	sub    $0x14,%r12d
    2ada:	41 54                	push   %r12
    2adc:	0f b6 46 13          	movzbl 0x13(%rsi),%eax
    2ae0:	50                   	push   %rax
    2ae1:	0f b6 46 12          	movzbl 0x12(%rsi),%eax
    2ae5:	50                   	push   %rax
    2ae6:	0f b6 46 11          	movzbl 0x11(%rsi),%eax
    2aea:	50                   	push   %rax
    2aeb:	0f b6 46 10          	movzbl 0x10(%rsi),%eax
    2aef:	50                   	push   %rax
    2af0:	0f b6 46 0f          	movzbl 0xf(%rsi),%eax
    2af4:	50                   	push   %rax
    2af5:	0f b6 46 0e          	movzbl 0xe(%rsi),%eax
    2af9:	50                   	push   %rax
    2afa:	0f b6 46 0d          	movzbl 0xd(%rsi),%eax
    2afe:	50                   	push   %rax
    2aff:	31 c0                	xor    %eax,%eax
    2b01:	44 0f b6 4e 0c       	movzbl 0xc(%rsi),%r9d
    2b06:	44 0f b7 46 0a       	movzwl 0xa(%rsi),%r8d
    2b0b:	48 89 fe             	mov    %rdi,%rsi
    2b0e:	48 bf ac c4 00 00 00 	movabs $0xc4ac,%rdi
    2b15:	00 00 00 
    2b18:	41 ff d5             	call   *%r13
    2b1b:	48 83 c4 40          	add    $0x40,%rsp
    2b1f:	66 83 7b 02 14       	cmpw   $0x14,0x2(%rbx)
    2b24:	77 19                	ja     0x2b3f
    2b26:	48 bf ed c4 00 00 00 	movabs $0xc4ed,%rdi
    2b2d:	00 00 00 
    2b30:	5b                   	pop    %rbx
    2b31:	4c 89 ea             	mov    %r13,%rdx
    2b34:	5d                   	pop    %rbp
    2b35:	31 c0                	xor    %eax,%eax
    2b37:	41 5c                	pop    %r12
    2b39:	41 5d                	pop    %r13
    2b3b:	41 5e                	pop    %r14
    2b3d:	ff e2                	jmp    *%rdx
    2b3f:	49 be ef c4 00 00 00 	movabs $0xc4ef,%r14
    2b46:	00 00 00 
    2b49:	31 ed                	xor    %ebp,%ebp
    2b4b:	41 39 ec             	cmp    %ebp,%r12d
    2b4e:	76 d6                	jbe    0x2b26
    2b50:	0f b6 74 2b 14       	movzbl 0x14(%rbx,%rbp,1),%esi
    2b55:	4c 89 f7             	mov    %r14,%rdi
    2b58:	31 c0                	xor    %eax,%eax
    2b5a:	48 ff c5             	inc    %rbp
    2b5d:	41 ff d5             	call   *%r13
    2b60:	eb e9                	jmp    0x2b4b
    2b62:	49 89 ca             	mov    %rcx,%r10
    2b65:	49 89 f8             	mov    %rdi,%r8
    2b68:	48 89 f8             	mov    %rdi,%rax
    2b6b:	49 89 f1             	mov    %rsi,%r9
    2b6e:	31 c9                	xor    %ecx,%ecx
    2b70:	31 ff                	xor    %edi,%edi
    2b72:	4d 85 d2             	test   %r10,%r10
    2b75:	74 05                	je     0x2b7c
    2b77:	48 85 f6             	test   %rsi,%rsi
    2b7a:	75 07                	jne    0x2b83
    2b7c:	4c 29 c0             	sub    %r8,%rax
    2b7f:	48 d1 f8             	sar    %rax
    2b82:	c3                   	ret    
    2b83:	53                   	push   %rbx
    2b84:	49 83 fa ff          	cmp    $0xffffffffffffffff,%r10
    2b88:	74 03                	je     0x2b8d
    2b8a:	49 ff ca             	dec    %r10
    2b8d:	40 8a 32             	mov    (%rdx),%sil
    2b90:	4c 8d 5a 01          	lea    0x1(%rdx),%r11
    2b94:	85 ff                	test   %edi,%edi
    2b96:	74 32                	je     0x2bca
    2b98:	89 f3                	mov    %esi,%ebx
    2b9a:	83 e3 c0             	and    $0xffffffc0,%ebx
    2b9d:	80 fb 80             	cmp    $0x80,%bl
    2ba0:	0f 85 85 00 00 00    	jne    0x2c2b
    2ba6:	c1 e1 06             	shl    $0x6,%ecx
    2ba9:	83 e6 3f             	and    $0x3f,%esi
    2bac:	ff cf                	dec    %edi
    2bae:	09 f1                	or     %esi,%ecx
    2bb0:	83 ff 01             	cmp    $0x1,%edi
    2bb3:	75 05                	jne    0x2bba
    2bb5:	83 f9 1f             	cmp    $0x1f,%ecx
    2bb8:	eb 08                	jmp    0x2bc2
    2bba:	83 ff 02             	cmp    $0x2,%edi
    2bbd:	75 62                	jne    0x2c21
    2bbf:	83 f9 0f             	cmp    $0xf,%ecx
    2bc2:	0f 87 c7 00 00 00    	ja     0x2c8f
    2bc8:	eb 61                	jmp    0x2c2b
    2bca:	40 0f b6 ce          	movzbl %sil,%ecx
    2bce:	40 84 f6             	test   %sil,%sil
    2bd1:	79 52                	jns    0x2c25
    2bd3:	89 f2                	mov    %esi,%edx
    2bd5:	83 e2 e0             	and    $0xffffffe0,%edx
    2bd8:	80 fa c0             	cmp    $0xc0,%dl
    2bdb:	75 10                	jne    0x2bed
    2bdd:	40 f6 c6 1e          	test   $0x1e,%sil
    2be1:	74 4b                	je     0x2c2e
    2be3:	89 f1                	mov    %esi,%ecx
    2be5:	83 e1 1f             	and    $0x1f,%ecx
    2be8:	e9 9d 00 00 00       	jmp    0x2c8a
    2bed:	89 f2                	mov    %esi,%edx
    2bef:	83 e2 f0             	and    $0xfffffff0,%edx
    2bf2:	80 fa e0             	cmp    $0xe0,%dl
    2bf5:	75 0f                	jne    0x2c06
    2bf7:	89 f1                	mov    %esi,%ecx
    2bf9:	bf 02 00 00 00       	mov    $0x2,%edi
    2bfe:	83 e1 0f             	and    $0xf,%ecx
    2c01:	e9 89 00 00 00       	jmp    0x2c8f
    2c06:	89 f2                	mov    %esi,%edx
    2c08:	b9 3f 00 00 00       	mov    $0x3f,%ecx
    2c0d:	83 e2 f8             	and    $0xfffffff8,%edx
    2c10:	80 fa f0             	cmp    $0xf0,%dl
    2c13:	75 1e                	jne    0x2c33
    2c15:	89 f1                	mov    %esi,%ecx
    2c17:	bf 03 00 00 00       	mov    $0x3,%edi
    2c1c:	83 e1 07             	and    $0x7,%ecx
    2c1f:	eb 6e                	jmp    0x2c8f
    2c21:	85 ff                	test   %edi,%edi
    2c23:	75 65                	jne    0x2c8a
    2c25:	85 c9                	test   %ecx,%ecx
    2c27:	75 0a                	jne    0x2c33
    2c29:	eb 75                	jmp    0x2ca0
    2c2b:	49 89 d3             	mov    %rdx,%r11
    2c2e:	b9 3f 00 00 00       	mov    $0x3f,%ecx
    2c33:	49 83 f9 01          	cmp    $0x1,%r9
    2c37:	75 0a                	jne    0x2c43
    2c39:	81 f9 ff ff 00 00    	cmp    $0xffff,%ecx
    2c3f:	76 3b                	jbe    0x2c7c
    2c41:	eb 5d                	jmp    0x2ca0
    2c43:	81 f9 ff ff 00 00    	cmp    $0xffff,%ecx
    2c49:	76 31                	jbe    0x2c7c
    2c4b:	8d 91 00 00 ff ff    	lea    -0x10000(%rcx),%edx
    2c51:	49 83 e9 02          	sub    $0x2,%r9
    2c55:	48 83 c0 04          	add    $0x4,%rax
    2c59:	c1 ea 0a             	shr    $0xa,%edx
    2c5c:	66 81 e2 ff 03       	and    $0x3ff,%dx
    2c61:	66 81 ca 00 d8       	or     $0xd800,%dx
    2c66:	66 89 50 fc          	mov    %dx,-0x4(%rax)
    2c6a:	89 ca                	mov    %ecx,%edx
    2c6c:	66 81 e2 ff 03       	and    $0x3ff,%dx
    2c71:	66 81 ca 00 dc       	or     $0xdc00,%dx
    2c76:	66 89 50 fe          	mov    %dx,-0x2(%rax)
    2c7a:	eb 0a                	jmp    0x2c86
    2c7c:	66 89 08             	mov    %cx,(%rax)
    2c7f:	49 ff c9             	dec    %r9
    2c82:	48 83 c0 02          	add    $0x2,%rax
    2c86:	31 ff                	xor    %edi,%edi
    2c88:	eb 05                	jmp    0x2c8f
    2c8a:	bf 01 00 00 00       	mov    $0x1,%edi
    2c8f:	4c 89 da             	mov    %r11,%rdx
    2c92:	4d 85 d2             	test   %r10,%r10
    2c95:	74 09                	je     0x2ca0
    2c97:	4d 85 c9             	test   %r9,%r9
    2c9a:	0f 85 e4 fe ff ff    	jne    0x2b84
    2ca0:	4c 29 c0             	sub    %r8,%rax
    2ca3:	5b                   	pop    %rbx
    2ca4:	48 d1 f8             	sar    %rax
    2ca7:	c3                   	ret    
    2ca8:	48 83 ec 18          	sub    $0x18,%rsp
    2cac:	49 89 f8             	mov    %rdi,%r8
    2caf:	48 89 f2             	mov    %rsi,%rdx
    2cb2:	48 a1 28 f8 00 00 00 	movabs 0xf828,%rax
    2cb9:	00 00 00 
    2cbc:	4c 89 c6             	mov    %r8,%rsi
    2cbf:	48 8d 4c 24 08       	lea    0x8(%rsp),%rcx
    2cc4:	48 8b 40 60          	mov    0x60(%rax),%rax
    2cc8:	48 8b b8 40 01 00 00 	mov    0x140(%rax),%rdi
    2ccf:	48 b8 9e 11 00 00 00 	movabs $0x119e,%rax
    2cd6:	00 00 00 
    2cd9:	ff d0                	call   *%rax
    2cdb:	49 89 c0             	mov    %rax,%r8
    2cde:	31 c0                	xor    %eax,%eax
    2ce0:	4d 85 c0             	test   %r8,%r8
    2ce3:	75 05                	jne    0x2cea
    2ce5:	48 8b 44 24 08       	mov    0x8(%rsp),%rax
    2cea:	48 83 c4 18          	add    $0x18,%rsp
    2cee:	c3                   	ret    
    2cef:	41 57                	push   %r15
    2cf1:	49 bf c3 5b 00 00 00 	movabs $0x5bc3,%r15
    2cf8:	00 00 00 
    2cfb:	41 56                	push   %r14
    2cfd:	41 89 fe             	mov    %edi,%r14d
    2d00:	bf 40 00 00 00       	mov    $0x40,%edi
    2d05:	41 55                	push   %r13
    2d07:	49 89 d5             	mov    %rdx,%r13
    2d0a:	41 54                	push   %r12
    2d0c:	55                   	push   %rbp
    2d0d:	53                   	push   %rbx
    2d0e:	48 83 ec 28          	sub    $0x28,%rsp
    2d12:	48 89 34 24          	mov    %rsi,(%rsp)
    2d16:	48 89 4c 24 08       	mov    %rcx,0x8(%rsp)
    2d1b:	48 c7 44 24 18 40 00 	movq   $0x40,0x18(%rsp)
    2d22:	00 00 
    2d24:	41 ff d7             	call   *%r15
    2d27:	48 85 c0             	test   %rax,%rax
    2d2a:	0f 84 95 00 00 00    	je     0x2dc5
    2d30:	48 89 c5             	mov    %rax,%rbp
    2d33:	48 8b 14 24          	mov    (%rsp),%rdx
    2d37:	4c 8d 44 24 18       	lea    0x18(%rsp),%r8
    2d3c:	4c 89 e9             	mov    %r13,%rcx
    2d3f:	48 a1 28 f8 00 00 00 	movabs 0xf828,%rax
    2d46:	00 00 00 
    2d49:	49 89 e9             	mov    %rbp,%r9
    2d4c:	4c 89 f6             	mov    %r14,%rsi
    2d4f:	48 bb c3 11 00 00 00 	movabs $0x11c3,%rbx
    2d56:	00 00 00 
    2d59:	4c 8b 60 60          	mov    0x60(%rax),%r12
    2d5d:	49 8b bc 24 b0 00 00 	mov    0xb0(%r12),%rdi
    2d64:	00 
    2d65:	ff d3                	call   *%rbx
    2d67:	48 ba 05 00 00 00 00 	movabs $0x8000000000000005,%rdx
    2d6e:	00 00 80 
    2d71:	48 39 d0             	cmp    %rdx,%rax
    2d74:	75 3b                	jne    0x2db1
    2d76:	48 b8 12 5c 00 00 00 	movabs $0x5c12,%rax
    2d7d:	00 00 00 
    2d80:	48 89 ef             	mov    %rbp,%rdi
    2d83:	ff d0                	call   *%rax
    2d85:	48 8b 7c 24 18       	mov    0x18(%rsp),%rdi
    2d8a:	41 ff d7             	call   *%r15
    2d8d:	48 89 c5             	mov    %rax,%rbp
    2d90:	48 85 c0             	test   %rax,%rax
    2d93:	74 30                	je     0x2dc5
    2d95:	48 8b 14 24          	mov    (%rsp),%rdx
    2d99:	49 89 c1             	mov    %rax,%r9
    2d9c:	4c 8d 44 24 18       	lea    0x18(%rsp),%r8
    2da1:	4c 89 e9             	mov    %r13,%rcx
    2da4:	49 8b bc 24 b0 00 00 	mov    0xb0(%r12),%rdi
    2dab:	00 
    2dac:	4c 89 f6             	mov    %r14,%rsi
    2daf:	ff d3                	call   *%rbx
    2db1:	48 85 c0             	test   %rax,%rax
    2db4:	74 13                	je     0x2dc9
    2db6:	48 b8 12 5c 00 00 00 	movabs $0x5c12,%rax
    2dbd:	00 00 00 
    2dc0:	48 89 ef             	mov    %rbp,%rdi
    2dc3:	ff d0                	call   *%rax
    2dc5:	31 ed                	xor    %ebp,%ebp
    2dc7:	eb 11                	jmp    0x2dda
    2dc9:	48 8b 44 24 18       	mov    0x18(%rsp),%rax
    2dce:	48 8b 5c 24 08       	mov    0x8(%rsp),%rbx
    2dd3:	48 c1 e8 03          	shr    $0x3,%rax
    2dd7:	48 89 03             	mov    %rax,(%rbx)
    2dda:	48 83 c4 28          	add    $0x28,%rsp
    2dde:	48 89 e8             	mov    %rbp,%rax
    2de1:	5b                   	pop    %rbx
    2de2:	5d                   	pop    %rbp
    2de3:	41 5c                	pop    %r12
    2de5:	41 5d                	pop    %r13
    2de7:	41 5e                	pop    %r14
    2de9:	41 5f                	pop    %r15
    2deb:	c3                   	ret    
    2dec:	48 83 ec 20          	sub    $0x20,%rsp
    2df0:	89 d2                	mov    %edx,%edx
    2df2:	49 89 fa             	mov    %rdi,%r10
    2df5:	45 31 c9             	xor    %r9d,%r9d
    2df8:	48 a1 28 f8 00 00 00 	movabs 0xf828,%rax
    2dff:	00 00 00 
    2e02:	48 8b 40 60          	mov    0x60(%rax),%rax
    2e06:	48 8b b8 18 01 00 00 	mov    0x118(%rax),%rdi
    2e0d:	52                   	push   %rdx
    2e0e:	48 89 f2             	mov    %rsi,%rdx
    2e11:	4c 89 d6             	mov    %r10,%rsi
    2e14:	48 b8 30 f8 00 00 00 	movabs $0xf830,%rax
    2e1b:	00 00 00 
    2e1e:	4c 8b 00             	mov    (%rax),%r8
    2e21:	48 b8 dc 11 00 00 00 	movabs $0x11dc,%rax
    2e28:	00 00 00 
    2e2b:	48 8d 4c 24 18       	lea    0x18(%rsp),%rcx
    2e30:	ff d0                	call   *%rax
    2e32:	49 89 c0             	mov    %rax,%r8
    2e35:	58                   	pop    %rax
    2e36:	31 c0                	xor    %eax,%eax
    2e38:	5a                   	pop    %rdx
    2e39:	4d 85 c0             	test   %r8,%r8
    2e3c:	75 05                	jne    0x2e43
    2e3e:	48 8b 44 24 08       	mov    0x8(%rsp),%rax
    2e43:	48 83 c4 18          	add    $0x18,%rsp
    2e47:	c3                   	ret    
    2e48:	48 b8 a8 2c 00 00 00 	movabs $0x2ca8,%rax
    2e4f:	00 00 00 
    2e52:	55                   	push   %rbp
    2e53:	31 f6                	xor    %esi,%esi
    2e55:	53                   	push   %rbx
    2e56:	89 fb                	mov    %edi,%ebx
    2e58:	48 bf d0 e2 00 00 00 	movabs $0xe2d0,%rdi
    2e5f:	00 00 00 
    2e62:	48 83 ec 18          	sub    $0x18,%rsp
    2e66:	ff d0                	call   *%rax
    2e68:	48 85 c0             	test   %rax,%rax
    2e6b:	75 07                	jne    0x2e74
    2e6d:	b8 01 00 00 00       	mov    $0x1,%eax
    2e72:	eb 59                	jmp    0x2ecd
    2e74:	48 8b 38             	mov    (%rax),%rdi
    2e77:	45 31 c0             	xor    %r8d,%r8d
    2e7a:	48 89 c6             	mov    %rax,%rsi
    2e7d:	48 89 c5             	mov    %rax,%rbp
    2e80:	31 c9                	xor    %ecx,%ecx
    2e82:	48 8d 54 24 0c       	lea    0xc(%rsp),%rdx
    2e87:	48 b8 af 11 00 00 00 	movabs $0x11af,%rax
    2e8e:	00 00 00 
    2e91:	ff d0                	call   *%rax
    2e93:	49 89 c0             	mov    %rax,%r8
    2e96:	31 c0                	xor    %eax,%eax
    2e98:	4d 85 c0             	test   %r8,%r8
    2e9b:	75 30                	jne    0x2ecd
    2e9d:	85 db                	test   %ebx,%ebx
    2e9f:	0f 94 c0             	sete   %al
    2ea2:	0f 94 c2             	sete   %dl
    2ea5:	0f b6 c0             	movzbl %al,%eax
    2ea8:	39 44 24 0c          	cmp    %eax,0xc(%rsp)
    2eac:	74 bf                	je     0x2e6d
    2eae:	48 8b 7d 08          	mov    0x8(%rbp),%rdi
    2eb2:	0f b6 d2             	movzbl %dl,%edx
    2eb5:	48 89 ee             	mov    %rbp,%rsi
    2eb8:	48 b8 90 11 00 00 00 	movabs $0x1190,%rax
    2ebf:	00 00 00 
    2ec2:	ff d0                	call   *%rax
    2ec4:	48 85 c0             	test   %rax,%rax
    2ec7:	0f 94 c0             	sete   %al
    2eca:	0f b6 c0             	movzbl %al,%eax
    2ecd:	48 83 c4 18          	add    $0x18,%rsp
    2ed1:	5b                   	pop    %rbx
    2ed2:	5d                   	pop    %rbp
    2ed3:	c3                   	ret    
    2ed4:	48 a1 28 f8 00 00 00 	movabs 0xf828,%rax
    2edb:	00 00 00 
    2ede:	48 89 fe             	mov    %rdi,%rsi
    2ee1:	48 8b 40 60          	mov    0x60(%rax),%rax
    2ee5:	48 8b b8 f8 00 00 00 	mov    0xf8(%rax),%rdi
    2eec:	48 b8 82 11 00 00 00 	movabs $0x1182,%rax
    2ef3:	00 00 00 
    2ef6:	ff e0                	jmp    *%rax
    2ef8:	48 be c0 e2 00 00 00 	movabs $0xe2c0,%rsi
    2eff:	00 00 00 
    2f02:	ba 02 00 00 00       	mov    $0x2,%edx
    2f07:	48 b8 ec 2d 00 00 00 	movabs $0x2dec,%rax
    2f0e:	00 00 00 
    2f11:	ff e0                	jmp    *%rax
    2f13:	bf 05 00 00 00       	mov    $0x5,%edi
    2f18:	50                   	push   %rax
    2f19:	48 b8 94 12 00 00 00 	movabs $0x1294,%rax
    2f20:	00 00 00 
    2f23:	ff d0                	call   *%rax
    2f25:	45 31 c0             	xor    %r8d,%r8d
    2f28:	31 c9                	xor    %ecx,%ecx
    2f2a:	31 d2                	xor    %edx,%edx
    2f2c:	48 a1 28 f8 00 00 00 	movabs 0xf828,%rax
    2f33:	00 00 00 
    2f36:	31 f6                	xor    %esi,%esi
    2f38:	48 8b 40 58          	mov    0x58(%rax),%rax
    2f3c:	48 8b 78 68          	mov    0x68(%rax),%rdi
    2f40:	48 b8 af 11 00 00 00 	movabs $0x11af,%rax
    2f47:	00 00 00 
    2f4a:	ff d0                	call   *%rax
    2f4c:	eb fe                	jmp    0x2f4c
    2f4e:	bf 01 00 00 00       	mov    $0x1,%edi
    2f53:	50                   	push   %rax
    2f54:	48 b8 94 12 00 00 00 	movabs $0x1294,%rax
    2f5b:	00 00 00 
    2f5e:	ff d0                	call   *%rax
    2f60:	45 31 c0             	xor    %r8d,%r8d
    2f63:	31 c9                	xor    %ecx,%ecx
    2f65:	31 d2                	xor    %edx,%edx
    2f67:	48 a1 28 f8 00 00 00 	movabs 0xf828,%rax
    2f6e:	00 00 00 
    2f71:	48 8b 40 60          	mov    0x60(%rax),%rax
    2f75:	48 8b b8 d8 00 00 00 	mov    0xd8(%rax),%rdi
    2f7c:	48 b8 30 f8 00 00 00 	movabs $0xf830,%rax
    2f83:	00 00 00 
    2f86:	48 8b 30             	mov    (%rax),%rsi
    2f89:	48 b8 af 11 00 00 00 	movabs $0x11af,%rax
    2f90:	00 00 00 
    2f93:	ff d0                	call   *%rax
    2f95:	eb fe                	jmp    0x2f95
    2f97:	41 50                	push   %r8
    2f99:	49 89 f9             	mov    %rdi,%r9
    2f9c:	49 89 c8             	mov    %rcx,%r8
    2f9f:	89 d1                	mov    %edx,%ecx
    2fa1:	48 a1 28 f8 00 00 00 	movabs 0xf828,%rax
    2fa8:	00 00 00 
    2fab:	48 89 f2             	mov    %rsi,%rdx
    2fae:	4c 89 ce             	mov    %r9,%rsi
    2fb1:	48 8b 40 58          	mov    0x58(%rax),%rax
    2fb5:	48 8b 78 38          	mov    0x38(%rax),%rdi
    2fb9:	48 b8 af 11 00 00 00 	movabs $0x11af,%rax
    2fc0:	00 00 00 
    2fc3:	ff d0                	call   *%rax
    2fc5:	48 85 c0             	test   %rax,%rax
    2fc8:	74 1e                	je     0x2fe8
    2fca:	48 be f5 c4 00 00 00 	movabs $0xc4f5,%rsi
    2fd1:	00 00 00 
    2fd4:	bf 1d 00 00 00       	mov    $0x1d,%edi
    2fd9:	31 c0                	xor    %eax,%eax
    2fdb:	59                   	pop    %rcx
    2fdc:	48 ba 43 86 00 00 00 	movabs $0x8643,%rdx
    2fe3:	00 00 00 
    2fe6:	ff e2                	jmp    *%rdx
    2fe8:	31 c0                	xor    %eax,%eax
    2fea:	5a                   	pop    %rdx
    2feb:	c3                   	ret    
    2fec:	48 b8 37 9a 00 00 00 	movabs $0x9a37,%rax
    2ff3:	00 00 00 
    2ff6:	41 57                	push   %r15
    2ff8:	49 89 d7             	mov    %rdx,%r15
    2ffb:	41 56                	push   %r14
    2ffd:	49 89 f6             	mov    %rsi,%r14
    3000:	41 55                	push   %r13
    3002:	41 54                	push   %r12
    3004:	49 89 fc             	mov    %rdi,%r12
    3007:	55                   	push   %rbp
    3008:	53                   	push   %rbx
    3009:	48 89 cb             	mov    %rcx,%rbx
    300c:	41 51                	push   %r9
    300e:	ff d0                	call   *%rax
    3010:	be 02 00 00 00       	mov    $0x2,%esi
    3015:	49 89 c5             	mov    %rax,%r13
    3018:	48 8d 78 01          	lea    0x1(%rax),%rdi
    301c:	48 b8 5b 5b 00 00 00 	movabs $0x5b5b,%rax
    3023:	00 00 00 
    3026:	ff d0                	call   *%rax
    3028:	48 85 c0             	test   %rax,%rax
    302b:	75 0e                	jne    0x303b
    302d:	a1 80 aa 01 00 00 00 	movabs 0x1aa80,%eax
    3034:	00 00 
    3036:	e9 94 00 00 00       	jmp    0x30cf
    303b:	48 89 c5             	mov    %rax,%rbp
    303e:	4c 89 e9             	mov    %r13,%rcx
    3041:	4c 89 ee             	mov    %r13,%rsi
    3044:	48 89 c7             	mov    %rax,%rdi
    3047:	48 b8 62 2b 00 00 00 	movabs $0x2b62,%rax
    304e:	00 00 00 
    3051:	4c 89 e2             	mov    %r12,%rdx
    3054:	ff d0                	call   *%rax
    3056:	4d 89 f9             	mov    %r15,%r9
    3059:	49 89 d8             	mov    %rbx,%r8
    305c:	b9 07 00 00 00       	mov    $0x7,%ecx
    3061:	66 c7 44 45 00 00 00 	movw   $0x0,0x0(%rbp,%rax,2)
    3068:	4c 89 f2             	mov    %r14,%rdx
    306b:	48 89 ee             	mov    %rbp,%rsi
    306e:	48 a1 28 f8 00 00 00 	movabs 0xf828,%rax
    3075:	00 00 00 
    3078:	48 8b 40 58          	mov    0x58(%rax),%rax
    307c:	48 8b 78 58          	mov    0x58(%rax),%rdi
    3080:	48 b8 c3 11 00 00 00 	movabs $0x11c3,%rax
    3087:	00 00 00 
    308a:	ff d0                	call   *%rax
    308c:	48 89 ef             	mov    %rbp,%rdi
    308f:	49 89 c5             	mov    %rax,%r13
    3092:	48 b8 12 5c 00 00 00 	movabs $0x5c12,%rax
    3099:	00 00 00 
    309c:	ff d0                	call   *%rax
    309e:	31 c0                	xor    %eax,%eax
    30a0:	4d 85 ed             	test   %r13,%r13
    30a3:	74 2a                	je     0x30cf
    30a5:	41 58                	pop    %r8
    30a7:	4c 89 e2             	mov    %r12,%rdx
    30aa:	5b                   	pop    %rbx
    30ab:	bf 1d 00 00 00       	mov    $0x1d,%edi
    30b0:	48 be 14 c5 00 00 00 	movabs $0xc514,%rsi
    30b7:	00 00 00 
    30ba:	5d                   	pop    %rbp
    30bb:	41 5c                	pop    %r12
    30bd:	48 b9 43 86 00 00 00 	movabs $0x8643,%rcx
    30c4:	00 00 00 
    30c7:	41 5d                	pop    %r13
    30c9:	41 5e                	pop    %r14
    30cb:	41 5f                	pop    %r15
    30cd:	ff e1                	jmp    *%rcx
    30cf:	5a                   	pop    %rdx
    30d0:	5b                   	pop    %rbx
    30d1:	5d                   	pop    %rbp
    30d2:	41 5c                	pop    %r12
    30d4:	41 5d                	pop    %r13
    30d6:	41 5e                	pop    %r14
    30d8:	41 5f                	pop    %r15
    30da:	c3                   	ret    
    30db:	48 b8 37 9a 00 00 00 	movabs $0x9a37,%rax
    30e2:	00 00 00 
    30e5:	41 57                	push   %r15
    30e7:	41 56                	push   %r14
    30e9:	49 be 09 00 00 00 00 	movabs $0x8000000000000009,%r14
    30f0:	00 00 80 
    30f3:	41 55                	push   %r13
    30f5:	49 89 f5             	mov    %rsi,%r13
    30f8:	41 54                	push   %r12
    30fa:	49 89 fc             	mov    %rdi,%r12
    30fd:	55                   	push   %rbp
    30fe:	53                   	push   %rbx
    30ff:	48 83 ec 38          	sub    $0x38,%rsp
    3103:	48 c7 01 00 00 00 00 	movq   $0x0,(%rcx)
    310a:	48 89 14 24          	mov    %rdx,(%rsp)
    310e:	48 89 4c 24 08       	mov    %rcx,0x8(%rsp)
    3113:	4c 89 44 24 10       	mov    %r8,0x10(%rsp)
    3118:	48 c7 02 00 00 00 00 	movq   $0x0,(%rdx)
    311f:	48 c7 44 24 28 00 00 	movq   $0x0,0x28(%rsp)
    3126:	00 00 
    3128:	ff d0                	call   *%rax
    312a:	be 02 00 00 00       	mov    $0x2,%esi
    312f:	48 8d 78 01          	lea    0x1(%rax),%rdi
    3133:	49 89 c7             	mov    %rax,%r15
    3136:	48 b8 5b 5b 00 00 00 	movabs $0x5b5b,%rax
    313d:	00 00 00 
    3140:	ff d0                	call   *%rax
    3142:	48 85 c0             	test   %rax,%rax
    3145:	0f 84 ec 00 00 00    	je     0x3237
    314b:	48 89 c5             	mov    %rax,%rbp
    314e:	4c 89 f9             	mov    %r15,%rcx
    3151:	4c 89 e2             	mov    %r12,%rdx
    3154:	4c 89 fe             	mov    %r15,%rsi
    3157:	49 bf c3 11 00 00 00 	movabs $0x11c3,%r15
    315e:	00 00 00 
    3161:	48 89 c7             	mov    %rax,%rdi
    3164:	48 b8 62 2b 00 00 00 	movabs $0x2b62,%rax
    316b:	00 00 00 
    316e:	48 bb 12 5c 00 00 00 	movabs $0x5c12,%rbx
    3175:	00 00 00 
    3178:	ff d0                	call   *%rax
    317a:	45 31 c9             	xor    %r9d,%r9d
    317d:	31 c9                	xor    %ecx,%ecx
    317f:	4c 89 ea             	mov    %r13,%rdx
    3182:	66 c7 44 45 00 00 00 	movw   $0x0,0x0(%rbp,%rax,2)
    3189:	4c 8d 44 24 28       	lea    0x28(%rsp),%r8
    318e:	48 89 ee             	mov    %rbp,%rsi
    3191:	48 a1 28 f8 00 00 00 	movabs 0xf828,%rax
    3198:	00 00 00 
    319b:	4c 8b 60 58          	mov    0x58(%rax),%r12
    319f:	49 8b 7c 24 48       	mov    0x48(%r12),%rdi
    31a4:	41 ff d7             	call   *%r15
    31a7:	48 ba 05 00 00 00 00 	movabs $0x8000000000000005,%rdx
    31ae:	00 00 80 
    31b1:	48 39 d0             	cmp    %rdx,%rax
    31b4:	49 89 c6             	mov    %rax,%r14
    31b7:	75 0a                	jne    0x31c3
    31b9:	48 8b 7c 24 28       	mov    0x28(%rsp),%rdi
    31be:	48 85 ff             	test   %rdi,%rdi
    31c1:	75 05                	jne    0x31c8
    31c3:	48 89 ef             	mov    %rbp,%rdi
    31c6:	eb 6d                	jmp    0x3235
    31c8:	48 b8 c3 5b 00 00 00 	movabs $0x5bc3,%rax
    31cf:	00 00 00 
    31d2:	ff d0                	call   *%rax
    31d4:	49 89 c1             	mov    %rax,%r9
    31d7:	48 85 c0             	test   %rax,%rax
    31da:	75 11                	jne    0x31ed
    31dc:	49 be 09 00 00 00 00 	movabs $0x8000000000000009,%r14
    31e3:	00 00 80 
    31e6:	48 89 ef             	mov    %rbp,%rdi
    31e9:	ff d3                	call   *%rbx
    31eb:	eb 4a                	jmp    0x3237
    31ed:	49 8b 7c 24 48       	mov    0x48(%r12),%rdi
    31f2:	48 8b 4c 24 10       	mov    0x10(%rsp),%rcx
    31f7:	4c 89 ea             	mov    %r13,%rdx
    31fa:	48 89 ee             	mov    %rbp,%rsi
    31fd:	4c 8d 44 24 28       	lea    0x28(%rsp),%r8
    3202:	48 89 44 24 18       	mov    %rax,0x18(%rsp)
    3207:	41 ff d7             	call   *%r15
    320a:	48 89 ef             	mov    %rbp,%rdi
    320d:	49 89 c6             	mov    %rax,%r14
    3210:	ff d3                	call   *%rbx
    3212:	4d 85 f6             	test   %r14,%r14
    3215:	4c 8b 4c 24 18       	mov    0x18(%rsp),%r9
    321a:	75 16                	jne    0x3232
    321c:	48 8b 44 24 08       	mov    0x8(%rsp),%rax
    3221:	48 8b 54 24 28       	mov    0x28(%rsp),%rdx
    3226:	4c 89 08             	mov    %r9,(%rax)
    3229:	48 8b 04 24          	mov    (%rsp),%rax
    322d:	48 89 10             	mov    %rdx,(%rax)
    3230:	eb 05                	jmp    0x3237
    3232:	4c 89 cf             	mov    %r9,%rdi
    3235:	ff d3                	call   *%rbx
    3237:	48 83 c4 38          	add    $0x38,%rsp
    323b:	4c 89 f0             	mov    %r14,%rax
    323e:	5b                   	pop    %rbx
    323f:	5d                   	pop    %rbp
    3240:	41 5c                	pop    %r12
    3242:	41 5d                	pop    %r13
    3244:	41 5e                	pop    %r14
    3246:	41 5f                	pop    %r15
    3248:	c3                   	ret    
    3249:	48 b8 db 30 00 00 00 	movabs $0x30db,%rax
    3250:	00 00 00 
    3253:	45 31 c0             	xor    %r8d,%r8d
    3256:	ff e0                	jmp    *%rax
    3258:	48 b8 30 f8 00 00 00 	movabs $0xf830,%rax
    325f:	00 00 00 
    3262:	41 56                	push   %r14
    3264:	41 55                	push   %r13
    3266:	41 54                	push   %r12
    3268:	55                   	push   %rbp
    3269:	53                   	push   %rbx
    326a:	48 8b 38             	mov    (%rax),%rdi
    326d:	48 b8 f8 2e 00 00 00 	movabs $0x2ef8,%rax
    3274:	00 00 00 
    3277:	ff d0                	call   *%rax
    3279:	48 89 c3             	mov    %rax,%rbx
    327c:	31 c0                	xor    %eax,%eax
    327e:	48 85 db             	test   %rbx,%rbx
    3281:	0f 84 e2 00 00 00    	je     0x3369
    3287:	4c 8b 6b 40          	mov    0x40(%rbx),%r13
    328b:	45 31 e4             	xor    %r12d,%r12d
    328e:	49 be 34 c5 00 00 00 	movabs $0xc534,%r14
    3295:	00 00 00 
    3298:	41 0f b7 85 94 00 00 	movzwl 0x94(%r13),%eax
    329f:	00 
    32a0:	49 8d ac 05 98 00 00 	lea    0x98(%r13,%rax,1),%rbp
    32a7:	00 
    32a8:	66 45 39 a5 86 00 00 	cmp    %r12w,0x86(%r13)
    32af:	00 
    32b0:	76 16                	jbe    0x32c8
    32b2:	48 b8 06 98 00 00 00 	movabs $0x9806,%rax
    32b9:	00 00 00 
    32bc:	4c 89 f6             	mov    %r14,%rsi
    32bf:	48 89 ef             	mov    %rbp,%rdi
    32c2:	ff d0                	call   *%rax
    32c4:	85 c0                	test   %eax,%eax
    32c6:	75 42                	jne    0x330a
    32c8:	66 45 39 a5 86 00 00 	cmp    %r12w,0x86(%r13)
    32cf:	00 
    32d0:	45 0f b7 c4          	movzwl %r12w,%r8d
    32d4:	48 ba 5f c5 00 00 00 	movabs $0xc55f,%rdx
    32db:	00 00 00 
    32de:	48 bf 68 c5 00 00 00 	movabs $0xc568,%rdi
    32e5:	00 00 00 
    32e8:	49 ba b7 a6 00 00 00 	movabs $0xa6b7,%r10
    32ef:	00 00 00 
    32f2:	75 1f                	jne    0x3313
    32f4:	48 b9 39 c5 00 00 00 	movabs $0xc539,%rcx
    32fb:	00 00 00 
    32fe:	be 45 01 00 00       	mov    $0x145,%esi
    3303:	31 c0                	xor    %eax,%eax
    3305:	41 ff d2             	call   *%r10
    3308:	eb 41                	jmp    0x334b
    330a:	41 ff c4             	inc    %r12d
    330d:	48 83 c5 28          	add    $0x28,%rbp
    3311:	eb 95                	jmp    0x32a8
    3313:	8b 45 0c             	mov    0xc(%rbp),%eax
    3316:	48 03 43 40          	add    0x40(%rbx),%rax
    331a:	80 7d 00 2e          	cmpb   $0x2e,0x0(%rbp)
    331e:	48 89 c3             	mov    %rax,%rbx
    3321:	74 2c                	je     0x334f
    3323:	44 8b 08             	mov    (%rax),%r9d
    3326:	41 81 f9 6d 69 6d 67 	cmp    $0x676d696d,%r9d
    332d:	74 20                	je     0x334f
    332f:	48 b9 77 c5 00 00 00 	movabs $0xc577,%rcx
    3336:	00 00 00 
    3339:	be 4d 01 00 00       	mov    $0x14d,%esi
    333e:	50                   	push   %rax
    333f:	31 c0                	xor    %eax,%eax
    3341:	68 6d 69 6d 67       	push   $0x676d696d
    3346:	41 ff d2             	call   *%r10
    3349:	5a                   	pop    %rdx
    334a:	59                   	pop    %rcx
    334b:	31 c0                	xor    %eax,%eax
    334d:	eb 1a                	jmp    0x3369
    334f:	31 c0                	xor    %eax,%eax
    3351:	49 89 e9             	mov    %rbp,%r9
    3354:	be 53 01 00 00       	mov    $0x153,%esi
    3359:	48 b9 a6 c5 00 00 00 	movabs $0xc5a6,%rcx
    3360:	00 00 00 
    3363:	41 ff d2             	call   *%r10
    3366:	48 89 d8             	mov    %rbx,%rax
    3369:	5b                   	pop    %rbx
    336a:	5d                   	pop    %rbp
    336b:	41 5c                	pop    %r12
    336d:	41 5d                	pop    %r13
    336f:	41 5e                	pop    %r14
    3371:	c3                   	ret    
    3372:	41 57                	push   %r15
    3374:	41 56                	push   %r14
    3376:	41 55                	push   %r13
    3378:	49 89 fd             	mov    %rdi,%r13
    337b:	41 54                	push   %r12
    337d:	55                   	push   %rbp
    337e:	53                   	push   %rbx
    337f:	51                   	push   %rcx
    3380:	48 85 ff             	test   %rdi,%rdi
    3383:	0f 84 f9 00 00 00    	je     0x3482
    3389:	48 89 f9             	mov    %rdi,%rcx
    338c:	31 ff                	xor    %edi,%edi
    338e:	8a 01                	mov    (%rcx),%al
    3390:	40 8a 71 01          	mov    0x1(%rcx),%sil
    3394:	83 e0 7f             	and    $0x7f,%eax
    3397:	3c 7f                	cmp    $0x7f,%al
    3399:	74 5a                	je     0x33f5
    339b:	0f b7 51 02          	movzwl 0x2(%rcx),%edx
    339f:	3c 04                	cmp    $0x4,%al
    33a1:	75 47                	jne    0x33ea
    33a3:	40 80 fe 04          	cmp    $0x4,%sil
    33a7:	75 41                	jne    0x33ea
    33a9:	44 0f b7 c2          	movzwl %dx,%r8d
    33ad:	66 83 fa 03          	cmp    $0x3,%dx
    33b1:	77 25                	ja     0x33d8
    33b3:	44 89 c2             	mov    %r8d,%edx
    33b6:	bf 0b 00 00 00       	mov    $0xb,%edi
    33bb:	31 c0                	xor    %eax,%eax
    33bd:	48 be d3 c5 00 00 00 	movabs $0xc5d3,%rsi
    33c4:	00 00 00 
    33c7:	48 b9 43 86 00 00 00 	movabs $0x8643,%rcx
    33ce:	00 00 00 
    33d1:	ff d1                	call   *%rcx
    33d3:	e9 aa 00 00 00       	jmp    0x3482
    33d8:	43 8d 44 00 f8       	lea    -0x8(%r8,%r8,1),%eax
    33dd:	83 e0 fc             	and    $0xfffffffc,%eax
    33e0:	83 c0 02             	add    $0x2,%eax
    33e3:	48 98                	cltq   
    33e5:	48 01 c7             	add    %rax,%rdi
    33e8:	eb 06                	jmp    0x33f0
    33ea:	66 83 fa 03          	cmp    $0x3,%dx
    33ee:	76 05                	jbe    0x33f5
    33f0:	48 01 d1             	add    %rdx,%rcx
    33f3:	eb 99                	jmp    0x338e
    33f5:	48 85 ff             	test   %rdi,%rdi
    33f8:	0f 84 84 00 00 00    	je     0x3482
    33fe:	48 b8 c3 5b 00 00 00 	movabs $0x5bc3,%rax
    3405:	00 00 00 
    3408:	ff d0                	call   *%rax
    340a:	49 89 c4             	mov    %rax,%r12
    340d:	48 85 c0             	test   %rax,%rax
    3410:	74 70                	je     0x3482
    3412:	48 bb 5b 5b 00 00 00 	movabs $0x5b5b,%rbx
    3419:	00 00 00 
    341c:	49 89 c7             	mov    %rax,%r15
    341f:	41 8a 45 00          	mov    0x0(%r13),%al
    3423:	41 8a 55 01          	mov    0x1(%r13),%dl
    3427:	83 e0 7f             	and    $0x7f,%eax
    342a:	3c 7f                	cmp    $0x7f,%al
    342c:	0f 84 fa 00 00 00    	je     0x352c
    3432:	3c 04                	cmp    $0x4,%al
    3434:	0f 85 df 00 00 00    	jne    0x3519
    343a:	80 fa 04             	cmp    $0x4,%dl
    343d:	0f 85 d6 00 00 00    	jne    0x3519
    3443:	41 c6 07 2f          	movb   $0x2f,(%r15)
    3447:	41 0f b7 55 02       	movzwl 0x2(%r13),%edx
    344c:	49 8d 6f 01          	lea    0x1(%r15),%rbp
    3450:	66 83 fa 03          	cmp    $0x3,%dx
    3454:	77 34                	ja     0x348a
    3456:	bf 0b 00 00 00       	mov    $0xb,%edi
    345b:	31 c0                	xor    %eax,%eax
    345d:	48 be d3 c5 00 00 00 	movabs $0xc5d3,%rsi
    3464:	00 00 00 
    3467:	48 b9 43 86 00 00 00 	movabs $0x8643,%rcx
    346e:	00 00 00 
    3471:	ff d1                	call   *%rcx
    3473:	4c 89 e7             	mov    %r12,%rdi
    3476:	48 b8 12 5c 00 00 00 	movabs $0x5c12,%rax
    347d:	00 00 00 
    3480:	ff d0                	call   *%rax
    3482:	45 31 f6             	xor    %r14d,%r14d
    3485:	e9 e4 00 00 00       	jmp    0x356e
    348a:	8d 42 fc             	lea    -0x4(%rdx),%eax
    348d:	48 98                	cltq   
    348f:	48 d1 e8             	shr    %rax
    3492:	41 89 c7             	mov    %eax,%r15d
    3495:	48 01 c0             	add    %rax,%rax
    3498:	4c 01 e8             	add    %r13,%rax
    349b:	66 45 85 ff          	test   %r15w,%r15w
    349f:	74 10                	je     0x34b1
    34a1:	48 83 e8 02          	sub    $0x2,%rax
    34a5:	66 83 78 04 00       	cmpw   $0x0,0x4(%rax)
    34aa:	75 05                	jne    0x34b1
    34ac:	41 ff cf             	dec    %r15d
    34af:	eb ea                	jmp    0x349b
    34b1:	45 0f b7 ff          	movzwl %r15w,%r15d
    34b5:	be 02 00 00 00       	mov    $0x2,%esi
    34ba:	4c 89 ff             	mov    %r15,%rdi
    34bd:	ff d3                	call   *%rbx
    34bf:	48 b9 12 5c 00 00 00 	movabs $0x5c12,%rcx
    34c6:	00 00 00 
    34c9:	48 85 c0             	test   %rax,%rax
    34cc:	49 89 c6             	mov    %rax,%r14
    34cf:	75 0a                	jne    0x34db
    34d1:	4c 89 e7             	mov    %r12,%rdi
    34d4:	ff d1                	call   *%rcx
    34d6:	e9 93 00 00 00       	jmp    0x356e
    34db:	4b 8d 14 3f          	lea    (%r15,%r15,1),%rdx
    34df:	48 89 c7             	mov    %rax,%rdi
    34e2:	49 8d 75 04          	lea    0x4(%r13),%rsi
    34e6:	48 b8 59 97 00 00 00 	movabs $0x9759,%rax
    34ed:	00 00 00 
    34f0:	ff d0                	call   *%rax
    34f2:	4c 89 fa             	mov    %r15,%rdx
    34f5:	48 89 ef             	mov    %rbp,%rdi
    34f8:	48 89 c6             	mov    %rax,%rsi
    34fb:	48 b8 b6 29 00 00 00 	movabs $0x29b6,%rax
    3502:	00 00 00 
    3505:	ff d0                	call   *%rax
    3507:	4c 89 f7             	mov    %r14,%rdi
    350a:	48 b9 12 5c 00 00 00 	movabs $0x5c12,%rcx
    3511:	00 00 00 
    3514:	49 89 c7             	mov    %rax,%r15
    3517:	ff d1                	call   *%rcx
    3519:	41 0f b7 45 02       	movzwl 0x2(%r13),%eax
    351e:	66 83 f8 03          	cmp    $0x3,%ax
    3522:	76 08                	jbe    0x352c
    3524:	49 01 c5             	add    %rax,%r13
    3527:	e9 f3 fe ff ff       	jmp    0x341f
    352c:	41 c6 07 00          	movb   $0x0,(%r15)
    3530:	4c 89 e0             	mov    %r12,%rax
    3533:	4c 89 e2             	mov    %r12,%rdx
    3536:	8a 08                	mov    (%rax),%cl
    3538:	84 c9                	test   %cl,%cl
    353a:	74 2c                	je     0x3568
    353c:	48 ff c2             	inc    %rdx
    353f:	80 f9 5c             	cmp    $0x5c,%cl
    3542:	74 05                	je     0x3549
    3544:	80 f9 2f             	cmp    $0x2f,%cl
    3547:	75 17                	jne    0x3560
    3549:	c6 42 ff 2f          	movb   $0x2f,-0x1(%rdx)
    354d:	8a 08                	mov    (%rax),%cl
    354f:	80 f9 5c             	cmp    $0x5c,%cl
    3552:	75 05                	jne    0x3559
    3554:	48 ff c0             	inc    %rax
    3557:	eb f4                	jmp    0x354d
    3559:	80 f9 2f             	cmp    $0x2f,%cl
    355c:	74 f6                	je     0x3554
    355e:	eb d6                	jmp    0x3536
    3560:	88 4a ff             	mov    %cl,-0x1(%rdx)
    3563:	48 ff c0             	inc    %rax
    3566:	eb ce                	jmp    0x3536
    3568:	c6 02 00             	movb   $0x0,(%rdx)
    356b:	4d 89 e6             	mov    %r12,%r14
    356e:	5a                   	pop    %rdx
    356f:	4c 89 f0             	mov    %r14,%rax
    3572:	5b                   	pop    %rbx
    3573:	5d                   	pop    %rbp
    3574:	41 5c                	pop    %r12
    3576:	41 5d                	pop    %r13
    3578:	41 5e                	pop    %r14
    357a:	41 5f                	pop    %r15
    357c:	c3                   	ret    
    357d:	48 be b0 e2 00 00 00 	movabs $0xe2b0,%rsi
    3584:	00 00 00 
    3587:	ba 02 00 00 00       	mov    $0x2,%edx
    358c:	48 b8 ec 2d 00 00 00 	movabs $0x2dec,%rax
    3593:	00 00 00 
    3596:	ff e0                	jmp    *%rax
    3598:	48 89 f8             	mov    %rdi,%rax
    359b:	48 85 ff             	test   %rdi,%rdi
    359e:	74 44                	je     0x35e4
    35a0:	0f b7 57 02          	movzwl 0x2(%rdi),%edx
    35a4:	66 83 fa 03          	cmp    $0x3,%dx
    35a8:	76 38                	jbe    0x35e2
    35aa:	8a 0f                	mov    (%rdi),%cl
    35ac:	83 e1 7f             	and    $0x7f,%ecx
    35af:	80 f9 7f             	cmp    $0x7f,%cl
    35b2:	75 06                	jne    0x35ba
    35b4:	80 7f 01 ff          	cmpb   $0xff,0x1(%rdi)
    35b8:	74 28                	je     0x35e2
    35ba:	48 01 c2             	add    %rax,%rdx
    35bd:	0f b7 4a 02          	movzwl 0x2(%rdx),%ecx
    35c1:	66 83 f9 03          	cmp    $0x3,%cx
    35c5:	76 1d                	jbe    0x35e4
    35c7:	40 8a 32             	mov    (%rdx),%sil
    35ca:	83 e6 7f             	and    $0x7f,%esi
    35cd:	40 80 fe 7f          	cmp    $0x7f,%sil
    35d1:	74 08                	je     0x35db
    35d3:	48 89 d0             	mov    %rdx,%rax
    35d6:	48 01 ca             	add    %rcx,%rdx
    35d9:	eb e2                	jmp    0x35bd
    35db:	80 7a 01 ff          	cmpb   $0xff,0x1(%rdx)
    35df:	75 f2                	jne    0x35d3
    35e1:	c3                   	ret    
    35e2:	31 c0                	xor    %eax,%eax
    35e4:	c3                   	ret    
    35e5:	41 55                	push   %r13
    35e7:	48 89 f8             	mov    %rdi,%rax
    35ea:	45 31 ed             	xor    %r13d,%r13d
    35ed:	41 54                	push   %r12
    35ef:	55                   	push   %rbp
    35f0:	48 89 fd             	mov    %rdi,%rbp
    35f3:	0f b7 50 02          	movzwl 0x2(%rax),%edx
    35f7:	48 83 fa 03          	cmp    $0x3,%rdx
    35fb:	77 22                	ja     0x361f
    35fd:	48 be 00 c6 00 00 00 	movabs $0xc600,%rsi
    3604:	00 00 00 
    3607:	31 c0                	xor    %eax,%eax
    3609:	45 31 e4             	xor    %r12d,%r12d
    360c:	bf 0b 00 00 00       	mov    $0xb,%edi
    3611:	48 b9 43 86 00 00 00 	movabs $0x8643,%rcx
    3618:	00 00 00 
    361b:	ff d1                	call   *%rcx
    361d:	eb 44                	jmp    0x3663
    361f:	8a 08                	mov    (%rax),%cl
    3621:	49 01 d5             	add    %rdx,%r13
    3624:	83 e1 7f             	and    $0x7f,%ecx
    3627:	80 f9 7f             	cmp    $0x7f,%cl
    362a:	75 06                	jne    0x3632
    362c:	80 78 01 ff          	cmpb   $0xff,0x1(%rax)
    3630:	74 05                	je     0x3637
    3632:	48 01 d0             	add    %rdx,%rax
    3635:	eb bc                	jmp    0x35f3
    3637:	48 b8 c3 5b 00 00 00 	movabs $0x5bc3,%rax
    363e:	00 00 00 
    3641:	4c 89 ef             	mov    %r13,%rdi
    3644:	ff d0                	call   *%rax
    3646:	49 89 c4             	mov    %rax,%r12
    3649:	48 85 c0             	test   %rax,%rax
    364c:	74 15                	je     0x3663
    364e:	48 89 c7             	mov    %rax,%rdi
    3651:	4c 89 ea             	mov    %r13,%rdx
    3654:	48 89 ee             	mov    %rbp,%rsi
    3657:	48 b8 59 97 00 00 00 	movabs $0x9759,%rax
    365e:	00 00 00 
    3661:	ff d0                	call   *%rax
    3663:	4c 89 e0             	mov    %r12,%rax
    3666:	5d                   	pop    %rbp
    3667:	41 5c                	pop    %r12
    3669:	41 5d                	pop    %r13
    366b:	c3                   	ret    
    366c:	41 57                	push   %r15
    366e:	41 56                	push   %r14
    3670:	41 55                	push   %r13
    3672:	41 54                	push   %r12
    3674:	55                   	push   %rbp
    3675:	48 bd 0a a6 00 00 00 	movabs $0xa60a,%rbp
    367c:	00 00 00 
    367f:	53                   	push   %rbx
    3680:	48 89 fb             	mov    %rdi,%rbx
    3683:	48 83 ec 18          	sub    $0x18,%rsp
    3687:	48 85 db             	test   %rbx,%rbx
    368a:	0f 84 c9 06 00 00    	je     0x3d59
    3690:	44 0f b7 63 02       	movzwl 0x2(%rbx),%r12d
    3695:	66 41 83 fc 03       	cmp    $0x3,%r12w
    369a:	0f 86 b9 06 00 00    	jbe    0x3d59
    36a0:	8a 03                	mov    (%rbx),%al
    36a2:	0f b6 73 01          	movzbl 0x1(%rbx),%esi
    36a6:	83 e0 7f             	and    $0x7f,%eax
    36a9:	3c 05                	cmp    $0x5,%al
    36ab:	77 1f                	ja     0x36cc
    36ad:	84 c0                	test   %al,%al
    36af:	0f 84 59 06 00 00    	je     0x3d0e
    36b5:	83 e8 02             	sub    $0x2,%eax
    36b8:	3c 03                	cmp    $0x3,%al
    36ba:	77 52                	ja     0x370e
    36bc:	48 ba 98 c0 00 00 00 	movabs $0xc098,%rdx
    36c3:	00 00 00 
    36c6:	0f b6 c0             	movzbl %al,%eax
    36c9:	ff 24 c2             	jmp    *(%rdx,%rax,8)
    36cc:	3c 7f                	cmp    $0x7f,%al
    36ce:	0f 85 3a 06 00 00    	jne    0x3d0e
    36d4:	40 80 fe 01          	cmp    $0x1,%sil
    36d8:	74 12                	je     0x36ec
    36da:	48 bf 2e c6 00 00 00 	movabs $0xc62e,%rdi
    36e1:	00 00 00 
    36e4:	40 80 fe ff          	cmp    $0xff,%sil
    36e8:	74 0c                	je     0x36f6
    36ea:	eb 13                	jmp    0x36ff
    36ec:	48 bf 3a c6 00 00 00 	movabs $0xc63a,%rdi
    36f3:	00 00 00 
    36f6:	31 c0                	xor    %eax,%eax
    36f8:	ff d5                	call   *%rbp
    36fa:	e9 3c 06 00 00       	jmp    0x3d3b
    36ff:	48 bf 44 c6 00 00 00 	movabs $0xc644,%rdi
    3706:	00 00 00 
    3709:	e9 fa 05 00 00       	jmp    0x3d08
    370e:	8d 46 ff             	lea    -0x1(%rsi),%eax
    3711:	3c 04                	cmp    $0x4,%al
    3713:	77 78                	ja     0x378d
    3715:	48 ba b8 c0 00 00 00 	movabs $0xc0b8,%rdx
    371c:	00 00 00 
    371f:	0f b6 c0             	movzbl %al,%eax
    3722:	ff 24 c2             	jmp    *(%rdx,%rax,8)
    3725:	0f b6 53 05          	movzbl 0x5(%rbx),%edx
    3729:	0f b6 73 04          	movzbl 0x4(%rbx),%esi
    372d:	48 bf 55 c6 00 00 00 	movabs $0xc655,%rdi
    3734:	00 00 00 
    3737:	e9 81 00 00 00       	jmp    0x37bd
    373c:	48 bf 61 c6 00 00 00 	movabs $0xc661,%rdi
    3743:	00 00 00 
    3746:	0f b6 73 04          	movzbl 0x4(%rbx),%esi
    374a:	e9 b9 05 00 00       	jmp    0x3d08
    374f:	48 8b 4b 10          	mov    0x10(%rbx),%rcx
    3753:	48 8b 53 08          	mov    0x8(%rbx),%rdx
    3757:	48 bf 6d c6 00 00 00 	movabs $0xc66d,%rdi
    375e:	00 00 00 
    3761:	8b 73 04             	mov    0x4(%rbx),%esi
    3764:	e9 29 04 00 00       	jmp    0x3b92
    3769:	48 bf 81 c6 00 00 00 	movabs $0xc681,%rdi
    3770:	00 00 00 
    3773:	48 89 de             	mov    %rbx,%rsi
    3776:	e9 2d 04 00 00       	jmp    0x3ba8
    377b:	48 bf 8a c6 00 00 00 	movabs $0xc68a,%rdi
    3782:	00 00 00 
    3785:	8b 73 04             	mov    0x4(%rbx),%esi
    3788:	e9 7b 05 00 00       	jmp    0x3d08
    378d:	48 bf 94 c6 00 00 00 	movabs $0xc694,%rdi
    3794:	00 00 00 
    3797:	e9 6c 05 00 00       	jmp    0x3d08
    379c:	40 80 fe 01          	cmp    $0x1,%sil
    37a0:	74 0b                	je     0x37ad
    37a2:	40 80 fe 02          	cmp    $0x2,%sil
    37a6:	74 1e                	je     0x37c6
    37a8:	e9 fd 00 00 00       	jmp    0x38aa
    37ad:	48 bf a3 c6 00 00 00 	movabs $0xc6a3,%rdi
    37b4:	00 00 00 
    37b7:	8b 53 08             	mov    0x8(%rbx),%edx
    37ba:	8b 73 04             	mov    0x4(%rbx),%esi
    37bd:	31 c0                	xor    %eax,%eax
    37bf:	ff d5                	call   *%rbp
    37c1:	e9 75 05 00 00       	jmp    0x3d3b
    37c6:	48 bf b0 c6 00 00 00 	movabs $0xc6b0,%rdi
    37cd:	00 00 00 
    37d0:	31 c0                	xor    %eax,%eax
    37d2:	4c 8d 6b 10          	lea    0x10(%rbx),%r13
    37d6:	ff d5                	call   *%rbp
    37d8:	80 7b 10 00          	cmpb   $0x0,0x10(%rbx)
    37dc:	75 13                	jne    0x37f1
    37de:	48 bf b7 c6 00 00 00 	movabs $0xc6b7,%rdi
    37e5:	00 00 00 
    37e8:	8b 73 04             	mov    0x4(%rbx),%esi
    37eb:	31 c0                	xor    %eax,%eax
    37ed:	ff d5                	call   *%rbp
    37ef:	eb 11                	jmp    0x3802
    37f1:	48 bf bb c6 00 00 00 	movabs $0xc6bb,%rdi
    37f8:	00 00 00 
    37fb:	4c 89 ee             	mov    %r13,%rsi
    37fe:	31 c0                	xor    %eax,%eax
    3800:	ff d5                	call   *%rbp
    3802:	49 be 37 9a 00 00 00 	movabs $0x9a37,%r14
    3809:	00 00 00 
    380c:	4c 89 ef             	mov    %r13,%rdi
    380f:	41 ff d6             	call   *%r14
    3812:	41 80 7c 05 01 00    	cmpb   $0x0,0x1(%r13,%rax,1)
    3818:	75 13                	jne    0x382d
    381a:	48 bf b7 c6 00 00 00 	movabs $0xc6b7,%rdi
    3821:	00 00 00 
    3824:	8b 73 08             	mov    0x8(%rbx),%esi
    3827:	31 c0                	xor    %eax,%eax
    3829:	ff d5                	call   *%rbp
    382b:	eb 19                	jmp    0x3846
    382d:	4c 89 ef             	mov    %r13,%rdi
    3830:	41 ff d6             	call   *%r14
    3833:	48 bf bb c6 00 00 00 	movabs $0xc6bb,%rdi
    383a:	00 00 00 
    383d:	49 8d 74 05 01       	lea    0x1(%r13,%rax,1),%rsi
    3842:	31 c0                	xor    %eax,%eax
    3844:	ff d5                	call   *%rbp
    3846:	4c 89 ef             	mov    %r13,%rdi
    3849:	41 ff d6             	call   *%r14
    384c:	4c 89 ef             	mov    %r13,%rdi
    384f:	49 89 c7             	mov    %rax,%r15
    3852:	41 ff d6             	call   *%r14
    3855:	4d 01 ef             	add    %r13,%r15
    3858:	49 8d 7c 05 01       	lea    0x1(%r13,%rax,1),%rdi
    385d:	41 ff d6             	call   *%r14
    3860:	41 80 7c 07 02 00    	cmpb   $0x0,0x2(%r15,%rax,1)
    3866:	75 12                	jne    0x387a
    3868:	48 bf bf c6 00 00 00 	movabs $0xc6bf,%rdi
    386f:	00 00 00 
    3872:	8b 73 0c             	mov    0xc(%rbx),%esi
    3875:	e9 8e 04 00 00       	jmp    0x3d08
    387a:	4c 89 ef             	mov    %r13,%rdi
    387d:	41 ff d6             	call   *%r14
    3880:	4c 89 ef             	mov    %r13,%rdi
    3883:	49 89 c7             	mov    %rax,%r15
    3886:	41 ff d6             	call   *%r14
    3889:	49 8d 7c 05 01       	lea    0x1(%r13,%rax,1),%rdi
    388e:	41 ff d6             	call   *%r14
    3891:	48 bf c3 c6 00 00 00 	movabs $0xc6c3,%rdi
    3898:	00 00 00 
    389b:	49 8d 44 07 02       	lea    0x2(%r15,%rax,1),%rax
    38a0:	49 8d 74 05 00       	lea    0x0(%r13,%rax,1),%rsi
    38a5:	e9 85 00 00 00       	jmp    0x392f
    38aa:	48 bf c7 c6 00 00 00 	movabs $0xc6c7,%rdi
    38b1:	00 00 00 
    38b4:	e9 4f 04 00 00       	jmp    0x3d08
    38b9:	8d 46 ff             	lea    -0x1(%rsi),%eax
    38bc:	3c 11                	cmp    $0x11,%al
    38be:	0f 87 3b 02 00 00    	ja     0x3aff
    38c4:	48 ba e0 c0 00 00 00 	movabs $0xc0e0,%rdx
    38cb:	00 00 00 
    38ce:	0f b6 c0             	movzbl %al,%eax
    38d1:	ff 24 c2             	jmp    *(%rdx,%rax,8)
    38d4:	0f b7 4b 06          	movzwl 0x6(%rbx),%ecx
    38d8:	0f b6 53 05          	movzbl 0x5(%rbx),%edx
    38dc:	48 bf d8 c6 00 00 00 	movabs $0xc6d8,%rdi
    38e3:	00 00 00 
    38e6:	0f b6 73 04          	movzbl 0x4(%rbx),%esi
    38ea:	e9 f5 01 00 00       	jmp    0x3ae4
    38ef:	0f b7 53 06          	movzwl 0x6(%rbx),%edx
    38f3:	0f b7 73 04          	movzwl 0x4(%rbx),%esi
    38f7:	48 bf e9 c6 00 00 00 	movabs $0xc6e9,%rdi
    38fe:	00 00 00 
    3901:	e9 b7 fe ff ff       	jmp    0x37bd
    3906:	48 8b 53 10          	mov    0x10(%rbx),%rdx
    390a:	48 8b 73 08          	mov    0x8(%rbx),%rsi
    390e:	31 c0                	xor    %eax,%eax
    3910:	48 bf f6 c6 00 00 00 	movabs $0xc6f6,%rdi
    3917:	00 00 00 
    391a:	ff d5                	call   *%rbp
    391c:	e9 1a 04 00 00       	jmp    0x3d3b
    3921:	48 bf 0f c7 00 00 00 	movabs $0xc70f,%rdi
    3928:	00 00 00 
    392b:	48 8b 73 08          	mov    0x8(%rbx),%rsi
    392f:	31 c0                	xor    %eax,%eax
    3931:	ff d5                	call   *%rbp
    3933:	e9 03 04 00 00       	jmp    0x3d3b
    3938:	0f b6 53 05          	movzbl 0x5(%rbx),%edx
    393c:	0f b6 73 04          	movzbl 0x4(%rbx),%esi
    3940:	48 bf 1b c7 00 00 00 	movabs $0xc71b,%rdi
    3947:	00 00 00 
    394a:	e9 6e fe ff ff       	jmp    0x37bd
    394f:	0f b6 4b 08          	movzbl 0x8(%rbx),%ecx
    3953:	0f b7 53 06          	movzwl 0x6(%rbx),%edx
    3957:	31 c0                	xor    %eax,%eax
    3959:	48 bf 27 c7 00 00 00 	movabs $0xc727,%rdi
    3960:	00 00 00 
    3963:	0f b7 73 04          	movzwl 0x4(%rbx),%esi
    3967:	44 0f b6 4b 0a       	movzbl 0xa(%rbx),%r9d
    396c:	44 0f b6 43 09       	movzbl 0x9(%rbx),%r8d
    3971:	ff d5                	call   *%rbp
    3973:	e9 c3 03 00 00       	jmp    0x3d3b
    3978:	48 bf 41 c7 00 00 00 	movabs $0xc741,%rdi
    397f:	00 00 00 
    3982:	8b 73 04             	mov    0x4(%rbx),%esi
    3985:	e9 7e 03 00 00       	jmp    0x3d08
    398a:	0f b6 43 24          	movzbl 0x24(%rbx),%eax
    398e:	44 0f b6 4b 08       	movzbl 0x8(%rbx),%r9d
    3993:	48 bf 4a c7 00 00 00 	movabs $0xc74a,%rdi
    399a:	00 00 00 
    399d:	44 0f b6 43 07       	movzbl 0x7(%rbx),%r8d
    39a2:	0f b6 4b 06          	movzbl 0x6(%rbx),%ecx
    39a6:	0f b6 53 05          	movzbl 0x5(%rbx),%edx
    39aa:	0f b6 73 04          	movzbl 0x4(%rbx),%esi
    39ae:	50                   	push   %rax
    39af:	0f b6 43 09          	movzbl 0x9(%rbx),%eax
    39b3:	50                   	push   %rax
    39b4:	31 c0                	xor    %eax,%eax
    39b6:	ff d5                	call   *%rbp
    39b8:	41 58                	pop    %r8
    39ba:	41 59                	pop    %r9
    39bc:	e9 7a 03 00 00       	jmp    0x3d3b
    39c1:	0f b6 43 12          	movzbl 0x12(%rbx),%eax
    39c5:	0f b6 4b 06          	movzbl 0x6(%rbx),%ecx
    39c9:	57                   	push   %rdi
    39ca:	48 bf 75 c7 00 00 00 	movabs $0xc775,%rdi
    39d1:	00 00 00 
    39d4:	0f b6 53 05          	movzbl 0x5(%rbx),%edx
    39d8:	0f b6 73 04          	movzbl 0x4(%rbx),%esi
    39dc:	44 0f b6 4b 08       	movzbl 0x8(%rbx),%r9d
    39e1:	44 0f b6 43 07       	movzbl 0x7(%rbx),%r8d
    39e6:	50                   	push   %rax
    39e7:	0f b7 43 10          	movzwl 0x10(%rbx),%eax
    39eb:	50                   	push   %rax
    39ec:	0f b7 43 0e          	movzwl 0xe(%rbx),%eax
    39f0:	50                   	push   %rax
    39f1:	0f b7 43 0c          	movzwl 0xc(%rbx),%eax
    39f5:	50                   	push   %rax
    39f6:	0f b6 43 0b          	movzbl 0xb(%rbx),%eax
    39fa:	50                   	push   %rax
    39fb:	0f b6 43 0a          	movzbl 0xa(%rbx),%eax
    39ff:	50                   	push   %rax
    3a00:	0f b6 43 09          	movzbl 0x9(%rbx),%eax
    3a04:	50                   	push   %rax
    3a05:	31 c0                	xor    %eax,%eax
    3a07:	ff d5                	call   *%rbp
    3a09:	e9 66 01 00 00       	jmp    0x3b74
    3a0e:	0f b7 4b 08          	movzwl 0x8(%rbx),%ecx
    3a12:	0f b7 53 06          	movzwl 0x6(%rbx),%edx
    3a16:	50                   	push   %rax
    3a17:	48 bf a0 c7 00 00 00 	movabs $0xc7a0,%rdi
    3a1e:	00 00 00 
    3a21:	0f b6 43 2a          	movzbl 0x2a(%rbx),%eax
    3a25:	0f b7 73 04          	movzwl 0x4(%rbx),%esi
    3a29:	50                   	push   %rax
    3a2a:	0f b7 43 28          	movzwl 0x28(%rbx),%eax
    3a2e:	50                   	push   %rax
    3a2f:	0f b7 43 26          	movzwl 0x26(%rbx),%eax
    3a33:	50                   	push   %rax
    3a34:	0f b7 43 24          	movzwl 0x24(%rbx),%eax
    3a38:	50                   	push   %rax
    3a39:	0f b7 43 22          	movzwl 0x22(%rbx),%eax
    3a3d:	50                   	push   %rax
    3a3e:	0f b7 43 20          	movzwl 0x20(%rbx),%eax
    3a42:	50                   	push   %rax
    3a43:	0f b7 43 1e          	movzwl 0x1e(%rbx),%eax
    3a47:	50                   	push   %rax
    3a48:	0f b7 43 1c          	movzwl 0x1c(%rbx),%eax
    3a4c:	50                   	push   %rax
    3a4d:	0f b7 43 1a          	movzwl 0x1a(%rbx),%eax
    3a51:	50                   	push   %rax
    3a52:	0f b7 43 18          	movzwl 0x18(%rbx),%eax
    3a56:	50                   	push   %rax
    3a57:	0f b7 43 16          	movzwl 0x16(%rbx),%eax
    3a5b:	50                   	push   %rax
    3a5c:	0f b7 43 14          	movzwl 0x14(%rbx),%eax
    3a60:	50                   	push   %rax
    3a61:	0f b7 43 12          	movzwl 0x12(%rbx),%eax
    3a65:	50                   	push   %rax
    3a66:	0f b7 43 10          	movzwl 0x10(%rbx),%eax
    3a6a:	50                   	push   %rax
    3a6b:	0f b7 43 0e          	movzwl 0xe(%rbx),%eax
    3a6f:	44 0f b7 4b 0c       	movzwl 0xc(%rbx),%r9d
    3a74:	44 0f b7 43 0a       	movzwl 0xa(%rbx),%r8d
    3a79:	50                   	push   %rax
    3a7a:	31 c0                	xor    %eax,%eax
    3a7c:	ff d5                	call   *%rbp
    3a7e:	48 83 ec 80          	sub    $0xffffffffffffff80,%rsp
    3a82:	e9 b4 02 00 00       	jmp    0x3d3b
    3a87:	48 8b 4b 20          	mov    0x20(%rbx),%rcx
    3a8b:	48 8b 53 18          	mov    0x18(%rbx),%rdx
    3a8f:	31 c0                	xor    %eax,%eax
    3a91:	48 bf e3 c7 00 00 00 	movabs $0xc7e3,%rdi
    3a98:	00 00 00 
    3a9b:	0f b6 73 08          	movzbl 0x8(%rbx),%esi
    3a9f:	4c 8b 43 28          	mov    0x28(%rbx),%r8
    3aa3:	ff d5                	call   *%rbp
    3aa5:	e9 91 02 00 00       	jmp    0x3d3b
    3aaa:	0f b6 4b 11          	movzbl 0x11(%rbx),%ecx
    3aae:	0f b6 53 10          	movzbl 0x10(%rbx),%edx
    3ab2:	31 c0                	xor    %eax,%eax
    3ab4:	48 bf 02 c8 00 00 00 	movabs $0xc802,%rdi
    3abb:	00 00 00 
    3abe:	48 8b 73 08          	mov    0x8(%rbx),%rsi
    3ac2:	44 0f b6 43 12       	movzbl 0x12(%rbx),%r8d
    3ac7:	ff d5                	call   *%rbp
    3ac9:	e9 6d 02 00 00       	jmp    0x3d3b
    3ace:	0f b7 4b 08          	movzwl 0x8(%rbx),%ecx
    3ad2:	0f b7 53 06          	movzwl 0x6(%rbx),%edx
    3ad6:	48 bf 17 c8 00 00 00 	movabs $0xc817,%rdi
    3add:	00 00 00 
    3ae0:	0f b7 73 04          	movzwl 0x4(%rbx),%esi
    3ae4:	31 c0                	xor    %eax,%eax
    3ae6:	ff d5                	call   *%rbp
    3ae8:	e9 4e 02 00 00       	jmp    0x3d3b
    3aed:	48 bf 27 c8 00 00 00 	movabs $0xc827,%rdi
    3af4:	00 00 00 
    3af7:	48 89 de             	mov    %rbx,%rsi
    3afa:	e9 a9 00 00 00       	jmp    0x3ba8
    3aff:	48 bf 31 c8 00 00 00 	movabs $0xc831,%rdi
    3b06:	00 00 00 
    3b09:	e9 fa 01 00 00       	jmp    0x3d08
    3b0e:	8d 46 ff             	lea    -0x1(%rsi),%eax
    3b11:	3c 04                	cmp    $0x4,%al
    3b13:	0f 87 b7 01 00 00    	ja     0x3cd0
    3b19:	48 ba 70 c1 00 00 00 	movabs $0xc170,%rdx
    3b20:	00 00 00 
    3b23:	0f b6 c0             	movzbl %al,%eax
    3b26:	ff 24 c2             	jmp    *(%rdx,%rax,8)
    3b29:	0f b6 43 29          	movzbl 0x29(%rbx),%eax
    3b2d:	48 8b 4b 10          	mov    0x10(%rbx),%rcx
    3b31:	48 bf 47 c8 00 00 00 	movabs $0xc847,%rdi
    3b38:	00 00 00 
    3b3b:	48 8b 53 08          	mov    0x8(%rbx),%rdx
    3b3f:	8b 73 04             	mov    0x4(%rbx),%esi
    3b42:	44 0f b6 4b 19       	movzbl 0x19(%rbx),%r9d
    3b47:	44 0f b6 43 18       	movzbl 0x18(%rbx),%r8d
    3b4c:	50                   	push   %rax
    3b4d:	0f b6 43 28          	movzbl 0x28(%rbx),%eax
    3b51:	50                   	push   %rax
    3b52:	0f b6 43 1f          	movzbl 0x1f(%rbx),%eax
    3b56:	50                   	push   %rax
    3b57:	0f b6 43 1e          	movzbl 0x1e(%rbx),%eax
    3b5b:	50                   	push   %rax
    3b5c:	0f b6 43 1d          	movzbl 0x1d(%rbx),%eax
    3b60:	50                   	push   %rax
    3b61:	0f b6 43 1c          	movzbl 0x1c(%rbx),%eax
    3b65:	50                   	push   %rax
    3b66:	0f b6 43 1b          	movzbl 0x1b(%rbx),%eax
    3b6a:	50                   	push   %rax
    3b6b:	0f b6 43 1a          	movzbl 0x1a(%rbx),%eax
    3b6f:	50                   	push   %rax
    3b70:	31 c0                	xor    %eax,%eax
    3b72:	ff d5                	call   *%rbp
    3b74:	48 83 c4 40          	add    $0x40,%rsp
    3b78:	e9 be 01 00 00       	jmp    0x3d3b
    3b7d:	48 8b 4b 10          	mov    0x10(%rbx),%rcx
    3b81:	48 8b 53 08          	mov    0x8(%rbx),%rdx
    3b85:	48 bf 80 c8 00 00 00 	movabs $0xc880,%rdi
    3b8c:	00 00 00 
    3b8f:	8b 73 04             	mov    0x4(%rbx),%esi
    3b92:	31 c0                	xor    %eax,%eax
    3b94:	ff d5                	call   *%rbp
    3b96:	e9 a0 01 00 00       	jmp    0x3d3b
    3b9b:	48 bf 92 c8 00 00 00 	movabs $0xc892,%rdi
    3ba2:	00 00 00 
    3ba5:	48 89 de             	mov    %rbx,%rsi
    3ba8:	48 b8 b5 2a 00 00 00 	movabs $0x2ab5,%rax
    3baf:	00 00 00 
    3bb2:	ff d0                	call   *%rax
    3bb4:	e9 82 01 00 00       	jmp    0x3d3b
    3bb9:	48 ba c3 5b 00 00 00 	movabs $0x5bc3,%rdx
    3bc0:	00 00 00 
    3bc3:	41 0f b7 c4          	movzwl %r12w,%eax
    3bc7:	49 bf 12 5c 00 00 00 	movabs $0x5c12,%r15
    3bce:	00 00 00 
    3bd1:	8d 7c 00 f9          	lea    -0x7(%rax,%rax,1),%edi
    3bd5:	44 8d 70 fc          	lea    -0x4(%rax),%r14d
    3bd9:	48 63 ff             	movslq %edi,%rdi
    3bdc:	ff d2                	call   *%rdx
    3bde:	48 85 c0             	test   %rax,%rax
    3be1:	49 89 c5             	mov    %rax,%r13
    3be4:	74 77                	je     0x3c5d
    3be6:	48 ba c3 5b 00 00 00 	movabs $0x5bc3,%rdx
    3bed:	00 00 00 
    3bf0:	4d 63 f6             	movslq %r14d,%r14
    3bf3:	4c 89 f7             	mov    %r14,%rdi
    3bf6:	ff d2                	call   *%rdx
    3bf8:	48 85 c0             	test   %rax,%rax
    3bfb:	75 20                	jne    0x3c1d
    3bfd:	48 b8 80 aa 01 00 00 	movabs $0x1aa80,%rax
    3c04:	00 00 00 
    3c07:	48 bf 98 c8 00 00 00 	movabs $0xc898,%rdi
    3c0e:	00 00 00 
    3c11:	c7 00 00 00 00 00    	movl   $0x0,(%rax)
    3c17:	31 c0                	xor    %eax,%eax
    3c19:	ff d5                	call   *%rbp
    3c1b:	eb 61                	jmp    0x3c7e
    3c1d:	48 89 44 24 08       	mov    %rax,0x8(%rsp)
    3c22:	48 8d 73 04          	lea    0x4(%rbx),%rsi
    3c26:	4c 89 f2             	mov    %r14,%rdx
    3c29:	48 89 c7             	mov    %rax,%rdi
    3c2c:	48 b8 59 97 00 00 00 	movabs $0x9759,%rax
    3c33:	00 00 00 
    3c36:	ff d0                	call   *%rax
    3c38:	4c 89 f2             	mov    %r14,%rdx
    3c3b:	4c 89 ef             	mov    %r13,%rdi
    3c3e:	48 89 c6             	mov    %rax,%rsi
    3c41:	48 d1 ea             	shr    %rdx
    3c44:	48 b8 b6 29 00 00 00 	movabs $0x29b6,%rax
    3c4b:	00 00 00 
    3c4e:	ff d0                	call   *%rax
    3c50:	48 8b 7c 24 08       	mov    0x8(%rsp),%rdi
    3c55:	c6 00 00             	movb   $0x0,(%rax)
    3c58:	41 ff d7             	call   *%r15
    3c5b:	eb 10                	jmp    0x3c6d
    3c5d:	48 b8 80 aa 01 00 00 	movabs $0x1aa80,%rax
    3c64:	00 00 00 
    3c67:	c7 00 00 00 00 00    	movl   $0x0,(%rax)
    3c6d:	48 bf a6 c8 00 00 00 	movabs $0xc8a6,%rdi
    3c74:	00 00 00 
    3c77:	4c 89 ee             	mov    %r13,%rsi
    3c7a:	31 c0                	xor    %eax,%eax
    3c7c:	ff d5                	call   *%rbp
    3c7e:	4c 89 ef             	mov    %r13,%rdi
    3c81:	41 ff d7             	call   *%r15
    3c84:	e9 b2 00 00 00       	jmp    0x3d3b
    3c89:	0f b6 43 13          	movzbl 0x13(%rbx),%eax
    3c8d:	0f b7 4b 0a          	movzwl 0xa(%rbx),%ecx
    3c91:	48 bf b0 c8 00 00 00 	movabs $0xc8b0,%rdi
    3c98:	00 00 00 
    3c9b:	0f b7 53 08          	movzwl 0x8(%rbx),%edx
    3c9f:	8b 73 04             	mov    0x4(%rbx),%esi
    3ca2:	44 0f b6 4b 0d       	movzbl 0xd(%rbx),%r9d
    3ca7:	44 0f b6 43 0c       	movzbl 0xc(%rbx),%r8d
    3cac:	50                   	push   %rax
    3cad:	0f b6 43 12          	movzbl 0x12(%rbx),%eax
    3cb1:	50                   	push   %rax
    3cb2:	0f b6 43 11          	movzbl 0x11(%rbx),%eax
    3cb6:	50                   	push   %rax
    3cb7:	0f b6 43 10          	movzbl 0x10(%rbx),%eax
    3cbb:	50                   	push   %rax
    3cbc:	0f b6 43 0f          	movzbl 0xf(%rbx),%eax
    3cc0:	50                   	push   %rax
    3cc1:	0f b6 43 0e          	movzbl 0xe(%rbx),%eax
    3cc5:	50                   	push   %rax
    3cc6:	31 c0                	xor    %eax,%eax
    3cc8:	ff d5                	call   *%rbp
    3cca:	48 83 c4 30          	add    $0x30,%rsp
    3cce:	eb 6b                	jmp    0x3d3b
    3cd0:	48 bf ec c8 00 00 00 	movabs $0xc8ec,%rdi
    3cd7:	00 00 00 
    3cda:	eb 2c                	jmp    0x3d08
    3cdc:	48 bf 0e c9 00 00 00 	movabs $0xc90e,%rdi
    3ce3:	00 00 00 
    3ce6:	40 80 fe 01          	cmp    $0x1,%sil
    3cea:	75 1c                	jne    0x3d08
    3cec:	0f b7 53 06          	movzwl 0x6(%rbx),%edx
    3cf0:	0f b7 73 04          	movzwl 0x4(%rbx),%esi
    3cf4:	48 8d 4b 04          	lea    0x4(%rbx),%rcx
    3cf8:	31 c0                	xor    %eax,%eax
    3cfa:	48 bf fe c8 00 00 00 	movabs $0xc8fe,%rdi
    3d01:	00 00 00 
    3d04:	ff d5                	call   *%rbp
    3d06:	eb 33                	jmp    0x3d3b
    3d08:	31 c0                	xor    %eax,%eax
    3d0a:	ff d5                	call   *%rbp
    3d0c:	eb 2d                	jmp    0x3d3b
    3d0e:	48 83 c4 18          	add    $0x18,%rsp
    3d12:	40 0f b6 d6          	movzbl %sil,%edx
    3d16:	48 bf 1f c9 00 00 00 	movabs $0xc91f,%rdi
    3d1d:	00 00 00 
    3d20:	0f b6 f0             	movzbl %al,%esi
    3d23:	48 b9 0a a6 00 00 00 	movabs $0xa60a,%rcx
    3d2a:	00 00 00 
    3d2d:	5b                   	pop    %rbx
    3d2e:	31 c0                	xor    %eax,%eax
    3d30:	5d                   	pop    %rbp
    3d31:	41 5c                	pop    %r12
    3d33:	41 5d                	pop    %r13
    3d35:	41 5e                	pop    %r14
    3d37:	41 5f                	pop    %r15
    3d39:	ff e1                	jmp    *%rcx
    3d3b:	66 83 7b 02 03       	cmpw   $0x3,0x2(%rbx)
    3d40:	76 17                	jbe    0x3d59
    3d42:	8a 03                	mov    (%rbx),%al
    3d44:	83 e0 7f             	and    $0x7f,%eax
    3d47:	3c 7f                	cmp    $0x7f,%al
    3d49:	75 06                	jne    0x3d51
    3d4b:	80 7b 01 ff          	cmpb   $0xff,0x1(%rbx)
    3d4f:	74 08                	je     0x3d59
    3d51:	4c 01 e3             	add    %r12,%rbx
    3d54:	e9 2e f9 ff ff       	jmp    0x3687
    3d59:	48 83 c4 18          	add    $0x18,%rsp
    3d5d:	5b                   	pop    %rbx
    3d5e:	5d                   	pop    %rbp
    3d5f:	41 5c                	pop    %r12
    3d61:	41 5d                	pop    %r13
    3d63:	41 5e                	pop    %r14
    3d65:	41 5f                	pop    %r15
    3d67:	c3                   	ret    
    3d68:	48 85 ff             	test   %rdi,%rdi
    3d6b:	0f 84 c9 00 00 00    	je     0x3e3a
    3d71:	41 55                	push   %r13
    3d73:	b8 01 00 00 00       	mov    $0x1,%eax
    3d78:	41 54                	push   %r12
    3d7a:	55                   	push   %rbp
    3d7b:	48 89 f5             	mov    %rsi,%rbp
    3d7e:	53                   	push   %rbx
    3d7f:	51                   	push   %rcx
    3d80:	48 85 f6             	test   %rsi,%rsi
    3d83:	0f 84 a9 00 00 00    	je     0x3e32
    3d89:	49 bd e1 97 00 00 00 	movabs $0x97e1,%r13
    3d90:	00 00 00 
    3d93:	48 89 fb             	mov    %rdi,%rbx
    3d96:	31 c0                	xor    %eax,%eax
    3d98:	48 39 f7             	cmp    %rsi,%rdi
    3d9b:	0f 84 91 00 00 00    	je     0x3e32
    3da1:	66 8b 53 02          	mov    0x2(%rbx),%dx
    3da5:	0f b7 75 02          	movzwl 0x2(%rbp),%esi
    3da9:	66 83 fa 03          	cmp    $0x3,%dx
    3dad:	76 77                	jbe    0x3e26
    3daf:	66 83 fe 03          	cmp    $0x3,%si
    3db3:	76 65                	jbe    0x3e1a
    3db5:	8a 0b                	mov    (%rbx),%cl
    3db7:	8a 45 00             	mov    0x0(%rbp),%al
    3dba:	83 e1 7f             	and    $0x7f,%ecx
    3dbd:	83 e0 7f             	and    $0x7f,%eax
    3dc0:	38 c1                	cmp    %al,%cl
    3dc2:	74 08                	je     0x3dcc
    3dc4:	0f b6 c0             	movzbl %al,%eax
    3dc7:	0f b6 c9             	movzbl %cl,%ecx
    3dca:	eb 0c                	jmp    0x3dd8
    3dcc:	0f b6 43 01          	movzbl 0x1(%rbx),%eax
    3dd0:	0f b6 4d 01          	movzbl 0x1(%rbp),%ecx
    3dd4:	38 c8                	cmp    %cl,%al
    3dd6:	74 04                	je     0x3ddc
    3dd8:	29 c8                	sub    %ecx,%eax
    3dda:	eb 56                	jmp    0x3e32
    3ddc:	66 39 f2             	cmp    %si,%dx
    3ddf:	74 07                	je     0x3de8
    3de1:	0f b7 c2             	movzwl %dx,%eax
    3de4:	29 f0                	sub    %esi,%eax
    3de6:	eb 4a                	jmp    0x3e32
    3de8:	44 0f b7 e2          	movzwl %dx,%r12d
    3dec:	48 89 ee             	mov    %rbp,%rsi
    3def:	48 89 df             	mov    %rbx,%rdi
    3df2:	4c 89 e2             	mov    %r12,%rdx
    3df5:	41 ff d5             	call   *%r13
    3df8:	85 c0                	test   %eax,%eax
    3dfa:	75 36                	jne    0x3e32
    3dfc:	66 83 7b 02 03       	cmpw   $0x3,0x2(%rbx)
    3e01:	76 23                	jbe    0x3e26
    3e03:	8a 03                	mov    (%rbx),%al
    3e05:	83 e0 7f             	and    $0x7f,%eax
    3e08:	3c 7f                	cmp    $0x7f,%al
    3e0a:	75 06                	jne    0x3e12
    3e0c:	80 7b 01 ff          	cmpb   $0xff,0x1(%rbx)
    3e10:	74 08                	je     0x3e1a
    3e12:	4c 01 e3             	add    %r12,%rbx
    3e15:	4c 01 e5             	add    %r12,%rbp
    3e18:	eb 87                	jmp    0x3da1
    3e1a:	31 c0                	xor    %eax,%eax
    3e1c:	66 83 7d 02 03       	cmpw   $0x3,0x2(%rbp)
    3e21:	0f 96 c0             	setbe  %al
    3e24:	eb 0c                	jmp    0x3e32
    3e26:	31 c0                	xor    %eax,%eax
    3e28:	66 83 7d 02 03       	cmpw   $0x3,0x2(%rbp)
    3e2d:	0f 97 c0             	seta   %al
    3e30:	f7 d8                	neg    %eax
    3e32:	5a                   	pop    %rdx
    3e33:	5b                   	pop    %rbx
    3e34:	5d                   	pop    %rbp
    3e35:	41 5c                	pop    %r12
    3e37:	41 5d                	pop    %r13
    3e39:	c3                   	ret    
    3e3a:	b8 01 00 00 00       	mov    $0x1,%eax
    3e3f:	c3                   	ret    
    3e40:	eb fe                	jmp    0x3e40
    3e42:	48 b8 58 32 00 00 00 	movabs $0x3258,%rax
    3e49:	00 00 00 
    3e4c:	53                   	push   %rbx
    3e4d:	48 bb af 11 00 00 00 	movabs $0x11af,%rbx
    3e54:	00 00 00 
    3e57:	ff d0                	call   *%rax
    3e59:	48 a3 48 f8 00 00 00 	movabs %rax,0xf848
    3e60:	00 00 00 
    3e63:	48 b8 fb 51 00 00 00 	movabs $0x51fb,%rax
    3e6a:	00 00 00 
    3e6d:	ff d0                	call   *%rax
    3e6f:	31 f6                	xor    %esi,%esi
    3e71:	48 bf e0 e2 00 00 00 	movabs $0xe2e0,%rdi
    3e78:	00 00 00 
    3e7b:	48 b8 a8 2c 00 00 00 	movabs $0x2ca8,%rax
    3e82:	00 00 00 
    3e85:	ff d0                	call   *%rax
    3e87:	48 85 c0             	test   %rax,%rax
    3e8a:	74 44                	je     0x3ed0
    3e8c:	31 d2                	xor    %edx,%edx
    3e8e:	48 8b 78 08          	mov    0x8(%rax),%rdi
    3e92:	48 89 c6             	mov    %rax,%rsi
    3e95:	b9 20 00 00 00       	mov    $0x20,%ecx
    3e9a:	49 b8 60 f8 00 00 00 	movabs $0xf860,%r8
    3ea1:	00 00 00 
    3ea4:	ff d3                	call   *%rbx
    3ea6:	48 85 c0             	test   %rax,%rax
    3ea9:	75 25                	jne    0x3ed0
    3eab:	48 be 60 f8 00 00 00 	movabs $0xf860,%rsi
    3eb2:	00 00 00 
    3eb5:	ba 08 00 00 00       	mov    $0x8,%edx
    3eba:	48 bf 50 f8 00 00 00 	movabs $0xf850,%rdi
    3ec1:	00 00 00 
    3ec4:	48 b8 59 97 00 00 00 	movabs $0x9759,%rax
    3ecb:	00 00 00 
    3ece:	ff d0                	call   *%rax
    3ed0:	48 b8 91 47 00 00 00 	movabs $0x4791,%rax
    3ed7:	00 00 00 
    3eda:	ff d0                	call   *%rax
    3edc:	48 b8 9e 55 00 00 00 	movabs $0x559e,%rax
    3ee3:	00 00 00 
    3ee6:	ff d0                	call   *%rax
    3ee8:	3c 03                	cmp    $0x3,%al
    3eea:	75 18                	jne    0x3f04
    3eec:	48 b8 1b 58 00 00 00 	movabs $0x581b,%rax
    3ef3:	00 00 00 
    3ef6:	ff d0                	call   *%rax
    3ef8:	48 b8 25 57 00 00 00 	movabs $0x5725,%rax
    3eff:	00 00 00 
    3f02:	ff d0                	call   *%rax
    3f04:	48 a1 28 f8 00 00 00 	movabs 0xf828,%rax
    3f0b:	00 00 00 
    3f0e:	31 c9                	xor    %ecx,%ecx
    3f10:	31 d2                	xor    %edx,%edx
    3f12:	31 f6                	xor    %esi,%esi
    3f14:	45 31 c0             	xor    %r8d,%r8d
    3f17:	48 8b 40 60          	mov    0x60(%rax),%rax
    3f1b:	48 8b b8 00 01 00 00 	mov    0x100(%rax),%rdi
    3f22:	ff d3                	call   *%rbx
    3f24:	5b                   	pop    %rbx
    3f25:	48 b8 10 24 00 00 00 	movabs $0x2410,%rax
    3f2c:	00 00 00 
    3f2f:	ff e0                	jmp    *%rax
    3f31:	48 b8 30 f8 00 00 00 	movabs $0xf830,%rax
    3f38:	00 00 00 
    3f3b:	41 54                	push   %r12
    3f3d:	49 89 f4             	mov    %rsi,%r12
    3f40:	55                   	push   %rbp
    3f41:	48 89 fd             	mov    %rdi,%rbp
    3f44:	53                   	push   %rbx
    3f45:	48 8b 38             	mov    (%rax),%rdi
    3f48:	48 b8 f8 2e 00 00 00 	movabs $0x2ef8,%rax
    3f4f:	00 00 00 
    3f52:	ff d0                	call   *%rax
    3f54:	48 85 c0             	test   %rax,%rax
    3f57:	74 70                	je     0x3fc9
    3f59:	48 8b 78 18          	mov    0x18(%rax),%rdi
    3f5d:	48 89 c3             	mov    %rax,%rbx
    3f60:	48 b8 a8 27 00 00 00 	movabs $0x27a8,%rax
    3f67:	00 00 00 
    3f6a:	ff d0                	call   *%rax
    3f6c:	48 89 45 00          	mov    %rax,0x0(%rbp)
    3f70:	48 85 c0             	test   %rax,%rax
    3f73:	75 1f                	jne    0x3f94
    3f75:	48 a1 40 f8 00 00 00 	movabs 0xf840,%rax
    3f7c:	00 00 00 
    3f7f:	48 85 c0             	test   %rax,%rax
    3f82:	74 10                	je     0x3f94
    3f84:	48 8b 7b 18          	mov    0x18(%rbx),%rdi
    3f88:	4c 89 e2             	mov    %r12,%rdx
    3f8b:	5b                   	pop    %rbx
    3f8c:	48 89 ee             	mov    %rbp,%rsi
    3f8f:	5d                   	pop    %rbp
    3f90:	41 5c                	pop    %r12
    3f92:	ff e0                	jmp    *%rax
    3f94:	48 b8 72 33 00 00 00 	movabs $0x3372,%rax
    3f9b:	00 00 00 
    3f9e:	48 8b 7b 20          	mov    0x20(%rbx),%rdi
    3fa2:	ff d0                	call   *%rax
    3fa4:	49 89 04 24          	mov    %rax,(%r12)
    3fa8:	48 89 c7             	mov    %rax,%rdi
    3fab:	48 85 c0             	test   %rax,%rax
    3fae:	74 19                	je     0x3fc9
    3fb0:	48 b8 6d 98 00 00 00 	movabs $0x986d,%rax
    3fb7:	00 00 00 
    3fba:	be 2f 00 00 00       	mov    $0x2f,%esi
    3fbf:	ff d0                	call   *%rax
    3fc1:	48 85 c0             	test   %rax,%rax
    3fc4:	74 03                	je     0x3fc9
    3fc6:	c6 00 00             	movb   $0x0,(%rax)
    3fc9:	5b                   	pop    %rbx
    3fca:	5d                   	pop    %rbp
    3fcb:	41 5c                	pop    %r12
    3fcd:	c3                   	ret    
    3fce:	50                   	push   %rax
    3fcf:	48 b8 a4 18 00 00 00 	movabs $0x18a4,%rax
    3fd6:	00 00 00 
    3fd9:	ff d0                	call   *%rax
    3fdb:	5a                   	pop    %rdx
    3fdc:	48 b8 ad 52 00 00 00 	movabs $0x52ad,%rax
    3fe3:	00 00 00 
    3fe6:	ff e0                	jmp    *%rax
    3fe8:	55                   	push   %rbp
    3fe9:	53                   	push   %rbx
    3fea:	48 83 ec 18          	sub    $0x18,%rsp
    3fee:	48 89 3c 24          	mov    %rdi,(%rsp)
    3ff2:	89 74 24 08          	mov    %esi,0x8(%rsp)
    3ff6:	66 81 fa e4 14       	cmp    $0x14e4,%dx
    3ffb:	0f 85 85 00 00 00    	jne    0x4086
    4001:	bb f8 0c 00 00       	mov    $0xcf8,%ebx
    4006:	ba 08 00 00 00       	mov    $0x8,%edx
    400b:	48 bd 22 13 00 00 00 	movabs $0x1322,%rbp
    4012:	00 00 00 
    4015:	ff d5                	call   *%rbp
    4017:	89 da                	mov    %ebx,%edx
    4019:	ef                   	out    %eax,(%dx)
    401a:	ba fc 0c 00 00       	mov    $0xcfc,%edx
    401f:	ed                   	in     (%dx),%eax
    4020:	c1 e8 18             	shr    $0x18,%eax
    4023:	83 f8 02             	cmp    $0x2,%eax
    4026:	75 5e                	jne    0x4086
    4028:	48 8b 3c 24          	mov    (%rsp),%rdi
    402c:	8b 74 24 08          	mov    0x8(%rsp),%esi
    4030:	ba 01 00 00 00       	mov    $0x1,%edx
    4035:	48 b8 11 14 00 00 00 	movabs $0x1411,%rax
    403c:	00 00 00 
    403f:	ff d0                	call   *%rax
    4041:	84 c0                	test   %al,%al
    4043:	74 41                	je     0x4086
    4045:	0f b6 c0             	movzbl %al,%eax
    4048:	8b 74 24 08          	mov    0x8(%rsp),%esi
    404c:	48 8b 3c 24          	mov    (%rsp),%rdi
    4050:	8d 50 04             	lea    0x4(%rax),%edx
    4053:	ff d5                	call   *%rbp
    4055:	89 da                	mov    %ebx,%edx
    4057:	89 c6                	mov    %eax,%esi
    4059:	89 c1                	mov    %eax,%ecx
    405b:	83 e6 fc             	and    $0xfffffffc,%esi
    405e:	89 f0                	mov    %esi,%eax
    4060:	ef                   	out    %eax,(%dx)
    4061:	83 e1 03             	and    $0x3,%ecx
    4064:	66 81 c1 fc 0c       	add    $0xcfc,%cx
    4069:	89 ca                	mov    %ecx,%edx
    406b:	66 ed                	in     (%dx),%ax
    406d:	89 c7                	mov    %eax,%edi
    406f:	89 da                	mov    %ebx,%edx
    4071:	89 f0                	mov    %esi,%eax
    4073:	ef                   	out    %eax,(%dx)
    4074:	89 f8                	mov    %edi,%eax
    4076:	89 ca                	mov    %ecx,%edx
    4078:	83 c8 03             	or     $0x3,%eax
    407b:	66 ef                	out    %ax,(%dx)
    407d:	89 f0                	mov    %esi,%eax
    407f:	89 da                	mov    %ebx,%edx
    4081:	ef                   	out    %eax,(%dx)
    4082:	89 ca                	mov    %ecx,%edx
    4084:	66 ed                	in     (%dx),%ax
    4086:	48 83 c4 18          	add    $0x18,%rsp
    408a:	31 c0                	xor    %eax,%eax
    408c:	5b                   	pop    %rbx
    408d:	5d                   	pop    %rbp
    408e:	c3                   	ret    
    408f:	41 54                	push   %r12
    4091:	48 89 f2             	mov    %rsi,%rdx
    4094:	49 bc 28 f8 00 00 00 	movabs $0xf828,%r12
    409b:	00 00 00 
    409e:	49 8b 04 24          	mov    (%r12),%rax
    40a2:	55                   	push   %rbp
    40a3:	48 89 f5             	mov    %rsi,%rbp
    40a6:	53                   	push   %rbx
    40a7:	48 89 fb             	mov    %rdi,%rbx
    40aa:	48 8b 40 60          	mov    0x60(%rax),%rax
    40ae:	48 89 de             	mov    %rbx,%rsi
    40b1:	48 8b 78 30          	mov    0x30(%rax),%rdi
    40b5:	48 b8 90 11 00 00 00 	movabs $0x1190,%rax
    40bc:	00 00 00 
    40bf:	ff d0                	call   *%rax
    40c1:	31 c0                	xor    %eax,%eax
    40c3:	48 b9 88 f8 00 00 00 	movabs $0xf888,%rcx
    40ca:	00 00 00 
    40cd:	48 8b 31             	mov    (%rcx),%rsi
    40d0:	48 85 f6             	test   %rsi,%rsi
    40d3:	74 41                	je     0x4116
    40d5:	48 3b 1e             	cmp    (%rsi),%rbx
    40d8:	48 8b 56 10          	mov    0x10(%rsi),%rdx
    40dc:	75 06                	jne    0x40e4
    40de:	48 3b 6e 08          	cmp    0x8(%rsi),%rbp
    40e2:	74 08                	je     0x40ec
    40e4:	48 89 f0             	mov    %rsi,%rax
    40e7:	48 89 d6             	mov    %rdx,%rsi
    40ea:	eb e4                	jmp    0x40d0
    40ec:	49 8b 3c 24          	mov    (%r12),%rdi
    40f0:	48 8b 7f 60          	mov    0x60(%rdi),%rdi
    40f4:	48 85 c0             	test   %rax,%rax
    40f7:	74 06                	je     0x40ff
    40f9:	48 89 50 10          	mov    %rdx,0x10(%rax)
    40fd:	eb 03                	jmp    0x4102
    40ff:	48 89 11             	mov    %rdx,(%rcx)
    4102:	48 b8 82 11 00 00 00 	movabs $0x1182,%rax
    4109:	00 00 00 
    410c:	5b                   	pop    %rbx
    410d:	48 8b 7f 48          	mov    0x48(%rdi),%rdi
    4111:	5d                   	pop    %rbp
    4112:	41 5c                	pop    %r12
    4114:	ff e0                	jmp    *%rax
    4116:	5b                   	pop    %rbx
    4117:	5d                   	pop    %rbp
    4118:	41 5c                	pop    %r12
    411a:	c3                   	ret    
    411b:	41 57                	push   %r15
    411d:	41 56                	push   %r14
    411f:	41 55                	push   %r13
    4121:	41 bd ff ff ff ff    	mov    $0xffffffff,%r13d
    4127:	41 54                	push   %r12
    4129:	49 bc 50 f8 00 00 00 	movabs $0xf850,%r12
    4130:	00 00 00 
    4133:	55                   	push   %rbp
    4134:	53                   	push   %rbx
    4135:	48 83 ec 58          	sub    $0x58,%rsp
    4139:	49 8b 04 24          	mov    (%r12),%rax
    413d:	48 89 44 24 48       	mov    %rax,0x48(%rsp)
    4142:	31 c0                	xor    %eax,%eax
    4144:	48 89 7c 24 08       	mov    %rdi,0x8(%rsp)
    4149:	4c 39 ef             	cmp    %r13,%rdi
    414c:	76 64                	jbe    0x41b2
    414e:	49 be 34 c9 00 00 00 	movabs $0xc934,%r14
    4155:	00 00 00 
    4158:	48 89 f9             	mov    %rdi,%rcx
    415b:	be 10 00 00 00       	mov    $0x10,%esi
    4160:	48 bb cb a7 00 00 00 	movabs $0xa7cb,%rbx
    4167:	00 00 00 
    416a:	4c 89 f2             	mov    %r14,%rdx
    416d:	48 8d 7c 24 26       	lea    0x26(%rsp),%rdi
    4172:	ff d3                	call   *%rbx
    4174:	4c 89 e9             	mov    %r13,%rcx
    4177:	4c 89 f2             	mov    %r14,%rdx
    417a:	48 8d 7c 24 37       	lea    0x37(%rsp),%rdi
    417f:	be 10 00 00 00       	mov    $0x10,%esi
    4184:	31 c0                	xor    %eax,%eax
    4186:	ff d3                	call   *%rbx
    4188:	48 8d 4c 24 37       	lea    0x37(%rsp),%rcx
    418d:	48 8d 54 24 26       	lea    0x26(%rsp),%rdx
    4192:	31 c0                	xor    %eax,%eax
    4194:	48 be 38 c9 00 00 00 	movabs $0xc938,%rsi
    419b:	00 00 00 
    419e:	bf 12 00 00 00       	mov    $0x12,%edi
    41a3:	49 b8 43 86 00 00 00 	movabs $0x8643,%r8
    41aa:	00 00 00 
    41ad:	41 ff d0             	call   *%r8
    41b0:	eb 6c                	jmp    0x421e
    41b2:	41 89 ce             	mov    %ecx,%r14d
    41b5:	89 d5                	mov    %edx,%ebp
    41b7:	48 89 f1             	mov    %rsi,%rcx
    41ba:	48 89 f3             	mov    %rsi,%rbx
    41bd:	49 bf 28 f8 00 00 00 	movabs $0xf828,%r15
    41c4:	00 00 00 
    41c7:	4c 8d 44 24 08       	lea    0x8(%rsp),%r8
    41cc:	4c 89 f2             	mov    %r14,%rdx
    41cf:	48 89 ee             	mov    %rbp,%rsi
    41d2:	49 ba af 11 00 00 00 	movabs $0x11af,%r10
    41d9:	00 00 00 
    41dc:	49 8b 07             	mov    (%r15),%rax
    41df:	4c 8b 48 60          	mov    0x60(%rax),%r9
    41e3:	4c 89 0c 24          	mov    %r9,(%rsp)
    41e7:	49 8b 79 28          	mov    0x28(%r9),%rdi
    41eb:	41 ff d2             	call   *%r10
    41ee:	4c 8b 0c 24          	mov    (%rsp),%r9
    41f2:	49 ba af 11 00 00 00 	movabs $0x11af,%r10
    41f9:	00 00 00 
    41fc:	48 85 c0             	test   %rax,%rax
    41ff:	74 24                	je     0x4225
    4201:	48 be 5d c9 00 00 00 	movabs $0xc95d,%rsi
    4208:	00 00 00 
    420b:	bf 03 00 00 00       	mov    $0x3,%edi
    4210:	31 c0                	xor    %eax,%eax
    4212:	48 ba 43 86 00 00 00 	movabs $0x8643,%rdx
    4219:	00 00 00 
    421c:	ff d2                	call   *%rdx
    421e:	31 c0                	xor    %eax,%eax
    4220:	e9 aa 00 00 00       	jmp    0x42cf
    4225:	48 83 7c 24 08 00    	cmpq   $0x0,0x8(%rsp)
    422b:	75 33                	jne    0x4260
    422d:	48 89 ee             	mov    %rbp,%rsi
    4230:	49 8b 79 28          	mov    0x28(%r9),%rdi
    4234:	4c 89 6c 24 08       	mov    %r13,0x8(%rsp)
    4239:	48 89 d9             	mov    %rbx,%rcx
    423c:	4c 8d 44 24 08       	lea    0x8(%rsp),%r8
    4241:	4c 89 f2             	mov    %r14,%rdx
    4244:	41 ff d2             	call   *%r10
    4247:	31 ff                	xor    %edi,%edi
    4249:	48 89 de             	mov    %rbx,%rsi
    424c:	48 89 c5             	mov    %rax,%rbp
    424f:	48 b8 8f 40 00 00 00 	movabs $0x408f,%rax
    4256:	00 00 00 
    4259:	ff d0                	call   *%rax
    425b:	48 85 ed             	test   %rbp,%rbp
    425e:	75 a1                	jne    0x4201
    4260:	49 8b 07             	mov    (%r15),%rax
    4263:	48 8b 6c 24 08       	mov    0x8(%rsp),%rbp
    4268:	48 8d 4c 24 18       	lea    0x18(%rsp),%rcx
    426d:	ba 18 00 00 00       	mov    $0x18,%edx
    4272:	be 02 00 00 00       	mov    $0x2,%esi
    4277:	48 8b 40 60          	mov    0x60(%rax),%rax
    427b:	48 8b 78 40          	mov    0x40(%rax),%rdi
    427f:	48 b8 9e 11 00 00 00 	movabs $0x119e,%rax
    4286:	00 00 00 
    4289:	ff d0                	call   *%rax
    428b:	48 85 c0             	test   %rax,%rax
    428e:	75 22                	jne    0x42b2
    4290:	48 ba 88 f8 00 00 00 	movabs $0xf888,%rdx
    4297:	00 00 00 
    429a:	48 8b 44 24 18       	mov    0x18(%rsp),%rax
    429f:	48 8b 0a             	mov    (%rdx),%rcx
    42a2:	48 89 28             	mov    %rbp,(%rax)
    42a5:	48 89 48 10          	mov    %rcx,0x10(%rax)
    42a9:	48 89 58 08          	mov    %rbx,0x8(%rax)
    42ad:	48 89 02             	mov    %rax,(%rdx)
    42b0:	eb 18                	jmp    0x42ca
    42b2:	48 bf 6b c9 00 00 00 	movabs $0xc96b,%rdi
    42b9:	00 00 00 
    42bc:	31 c0                	xor    %eax,%eax
    42be:	48 ba 0a a6 00 00 00 	movabs $0xa60a,%rdx
    42c5:	00 00 00 
    42c8:	ff d2                	call   *%rdx
    42ca:	48 8b 44 24 08       	mov    0x8(%rsp),%rax
    42cf:	48 8b 54 24 48       	mov    0x48(%rsp),%rdx
    42d4:	49 2b 14 24          	sub    (%r12),%rdx
    42d8:	74 0c                	je     0x42e6
    42da:	48 b8 40 3e 00 00 00 	movabs $0x3e40,%rax
    42e1:	00 00 00 
    42e4:	ff d0                	call   *%rax
    42e6:	48 83 c4 58          	add    $0x58,%rsp
    42ea:	5b                   	pop    %rbx
    42eb:	5d                   	pop    %rbp
    42ec:	41 5c                	pop    %r12
    42ee:	41 5d                	pop    %r13
    42f0:	41 5e                	pop    %r14
    42f2:	41 5f                	pop    %r15
    42f4:	c3                   	ret    
    42f5:	48 89 fe             	mov    %rdi,%rsi
    42f8:	b9 02 00 00 00       	mov    $0x2,%ecx
    42fd:	ba 01 00 00 00       	mov    $0x1,%edx
    4302:	bf ff ff ff ff       	mov    $0xffffffff,%edi
    4307:	48 b8 1b 41 00 00 00 	movabs $0x411b,%rax
    430e:	00 00 00 
    4311:	ff e0                	jmp    *%rax
    4313:	b9 02 00 00 00       	mov    $0x2,%ecx
    4318:	ba 02 00 00 00       	mov    $0x2,%edx
    431d:	48 b8 1b 41 00 00 00 	movabs $0x411b,%rax
    4324:	00 00 00 
    4327:	ff e0                	jmp    *%rax
    4329:	48 b8 80 f8 00 00 00 	movabs $0xf880,%rax
    4330:	00 00 00 
    4333:	41 56                	push   %r14
    4335:	41 55                	push   %r13
    4337:	49 89 fd             	mov    %rdi,%r13
    433a:	48 89 f7             	mov    %rsi,%rdi
    433d:	41 54                	push   %r12
    433f:	49 89 d4             	mov    %rdx,%r12
    4342:	55                   	push   %rbp
    4343:	4c 89 c5             	mov    %r8,%rbp
    4346:	53                   	push   %rbx
    4347:	48 89 cb             	mov    %rcx,%rbx
    434a:	48 83 ec 20          	sub    $0x20,%rsp
    434e:	83 38 00             	cmpl   $0x0,(%rax)
    4351:	0f 84 8a 00 00 00    	je     0x43e1
    4357:	49 be a8 f8 00 00 00 	movabs $0xf8a8,%r14
    435e:	00 00 00 
    4361:	45 31 d2             	xor    %r10d,%r10d
    4364:	48 85 f6             	test   %rsi,%rsi
    4367:	74 35                	je     0x439e
    4369:	49 8b 16             	mov    (%r14),%rdx
    436c:	4d 8b 45 00          	mov    0x0(%r13),%r8
    4370:	48 b8 b0 f8 00 00 00 	movabs $0xf8b0,%rax
    4377:	00 00 00 
    437a:	48 b9 59 97 00 00 00 	movabs $0x9759,%rcx
    4381:	00 00 00 
    4384:	48 8b 30             	mov    (%rax),%rsi
    4387:	49 39 d0             	cmp    %rdx,%r8
    438a:	73 0a                	jae    0x4396
    438c:	4c 89 c2             	mov    %r8,%rdx
    438f:	ff d1                	call   *%rcx
    4391:	45 31 d2             	xor    %r10d,%r10d
    4394:	eb 08                	jmp    0x439e
    4396:	ff d1                	call   *%rcx
    4398:	41 ba 01 00 00 00    	mov    $0x1,%r10d
    439e:	49 8b 06             	mov    (%r14),%rax
    43a1:	49 89 45 00          	mov    %rax,0x0(%r13)
    43a5:	4d 85 e4             	test   %r12,%r12
    43a8:	74 0e                	je     0x43b8
    43aa:	48 a1 a0 f8 00 00 00 	movabs 0xf8a0,%rax
    43b1:	00 00 00 
    43b4:	49 89 04 24          	mov    %rax,(%r12)
    43b8:	48 85 db             	test   %rbx,%rbx
    43bb:	74 0d                	je     0x43ca
    43bd:	48 a1 98 f8 00 00 00 	movabs 0xf898,%rax
    43c4:	00 00 00 
    43c7:	48 89 03             	mov    %rax,(%rbx)
    43ca:	48 85 ed             	test   %rbp,%rbp
    43cd:	0f 84 8b 00 00 00    	je     0x445e
    43d3:	a1 90 f8 00 00 00 00 	movabs 0xf890,%eax
    43da:	00 00 
    43dc:	89 45 00             	mov    %eax,0x0(%rbp)
    43df:	eb 7d                	jmp    0x445e
    43e1:	48 85 d2             	test   %rdx,%rdx
    43e4:	75 05                	jne    0x43eb
    43e6:	4c 8d 64 24 10       	lea    0x10(%rsp),%r12
    43eb:	48 85 ed             	test   %rbp,%rbp
    43ee:	75 05                	jne    0x43f5
    43f0:	48 8d 6c 24 0c       	lea    0xc(%rsp),%rbp
    43f5:	48 85 db             	test   %rbx,%rbx
    43f8:	75 05                	jne    0x43ff
    43fa:	48 8d 5c 24 18       	lea    0x18(%rsp),%rbx
    43ff:	48 89 fa             	mov    %rdi,%rdx
    4402:	49 89 e9             	mov    %rbp,%r9
    4405:	49 89 d8             	mov    %rbx,%r8
    4408:	4c 89 e1             	mov    %r12,%rcx
    440b:	48 a1 28 f8 00 00 00 	movabs 0xf828,%rax
    4412:	00 00 00 
    4415:	4c 89 ee             	mov    %r13,%rsi
    4418:	48 8b 40 60          	mov    0x60(%rax),%rax
    441c:	4c 8b 50 38          	mov    0x38(%rax),%r10
    4420:	48 b8 c3 11 00 00 00 	movabs $0x11c3,%rax
    4427:	00 00 00 
    442a:	4c 89 d7             	mov    %r10,%rdi
    442d:	ff d0                	call   *%rax
    442f:	48 83 3b 00          	cmpq   $0x0,(%rbx)
    4433:	75 07                	jne    0x443c
    4435:	48 c7 03 28 00 00 00 	movq   $0x28,(%rbx)
    443c:	41 ba 01 00 00 00    	mov    $0x1,%r10d
    4442:	48 85 c0             	test   %rax,%rax
    4445:	74 17                	je     0x445e
    4447:	48 ba 05 00 00 00 00 	movabs $0x8000000000000005,%rdx
    444e:	00 00 80 
    4451:	45 31 d2             	xor    %r10d,%r10d
    4454:	48 39 d0             	cmp    %rdx,%rax
    4457:	41 0f 95 c2          	setne  %r10b
    445b:	41 f7 da             	neg    %r10d
    445e:	48 83 c4 20          	add    $0x20,%rsp
    4462:	44 89 d0             	mov    %r10d,%eax
    4465:	5b                   	pop    %rbx
    4466:	5d                   	pop    %rbp
    4467:	41 5c                	pop    %r12
    4469:	41 5d                	pop    %r13
    446b:	41 5e                	pop    %r14
    446d:	c3                   	ret    
    446e:	48 b8 41 00 70 00 70 	movabs $0x6c007000700041,%rax
    4475:	00 6c 00 
    4478:	41 57                	push   %r15
    447a:	41 56                	push   %r14
    447c:	41 55                	push   %r13
    447e:	49 bd b0 f8 00 00 00 	movabs $0xf8b0,%r13
    4485:	00 00 00 
    4488:	41 54                	push   %r12
    448a:	55                   	push   %rbp
    448b:	48 89 f5             	mov    %rsi,%rbp
    448e:	53                   	push   %rbx
    448f:	48 89 fb             	mov    %rdi,%rbx
    4492:	48 83 ec 38          	sub    $0x38,%rsp
    4496:	48 89 44 24 26       	mov    %rax,0x26(%rsp)
    449b:	48 8d 74 24 26       	lea    0x26(%rsp),%rsi
    44a0:	48 a1 28 f8 00 00 00 	movabs 0xf828,%rax
    44a7:	00 00 00 
    44aa:	48 89 14 24          	mov    %rdx,(%rsp)
    44ae:	ba 0a 00 00 00       	mov    $0xa,%edx
    44b3:	48 8b 78 18          	mov    0x18(%rax),%rdi
    44b7:	48 89 4c 24 08       	mov    %rcx,0x8(%rsp)
    44bc:	48 b8 e1 97 00 00 00 	movabs $0x97e1,%rax
    44c3:	00 00 00 
    44c6:	4c 89 44 24 10       	mov    %r8,0x10(%rsp)
    44cb:	66 c7 44 24 2e 65 00 	movw   $0x65,0x2e(%rsp)
    44d2:	ff d0                	call   *%rax
    44d4:	89 44 24 1c          	mov    %eax,0x1c(%rsp)
    44d8:	49 be a8 f8 00 00 00 	movabs $0xf8a8,%r14
    44df:	00 00 00 
    44e2:	49 8b 75 00          	mov    0x0(%r13),%rsi
    44e6:	49 b8 90 f8 00 00 00 	movabs $0xf890,%r8
    44ed:	00 00 00 
    44f0:	48 b9 98 f8 00 00 00 	movabs $0xf898,%rcx
    44f7:	00 00 00 
    44fa:	48 ba a0 f8 00 00 00 	movabs $0xf8a0,%rdx
    4501:	00 00 00 
    4504:	4c 89 f7             	mov    %r14,%rdi
    4507:	48 b8 29 43 00 00 00 	movabs $0x4329,%rax
    450e:	00 00 00 
    4511:	ff d0                	call   *%rax
    4513:	85 c0                	test   %eax,%eax
    4515:	0f 88 a6 00 00 00    	js     0x45c1
    451b:	49 8b 3e             	mov    (%r14),%rdi
    451e:	48 85 ed             	test   %rbp,%rbp
    4521:	74 27                	je     0x454a
    4523:	48 39 3b             	cmp    %rdi,(%rbx)
    4526:	73 22                	jae    0x454a
    4528:	48 be e1 c9 00 00 00 	movabs $0xc9e1,%rsi
    452f:	00 00 00 
    4532:	bf 1d 00 00 00       	mov    $0x1d,%edi
    4537:	31 c0                	xor    %eax,%eax
    4539:	48 ba 43 86 00 00 00 	movabs $0x8643,%rdx
    4540:	00 00 00 
    4543:	ff d2                	call   *%rdx
    4545:	e9 ad 01 00 00       	jmp    0x46f7
    454a:	48 b8 c3 5b 00 00 00 	movabs $0x5bc3,%rax
    4551:	00 00 00 
    4554:	ff d0                	call   *%rax
    4556:	49 89 45 00          	mov    %rax,0x0(%r13)
    455a:	48 89 c6             	mov    %rax,%rsi
    455d:	48 85 c0             	test   %rax,%rax
    4560:	75 0e                	jne    0x4570
    4562:	a1 80 aa 01 00 00 00 	movabs 0x1aa80,%eax
    4569:	00 00 
    456b:	e9 87 01 00 00       	jmp    0x46f7
    4570:	49 bf 98 f8 00 00 00 	movabs $0xf898,%r15
    4577:	00 00 00 
    457a:	49 be a0 f8 00 00 00 	movabs $0xf8a0,%r14
    4581:	00 00 00 
    4584:	49 bc a8 f8 00 00 00 	movabs $0xf8a8,%r12
    458b:	00 00 00 
    458e:	49 b8 90 f8 00 00 00 	movabs $0xf890,%r8
    4595:	00 00 00 
    4598:	4c 89 f9             	mov    %r15,%rcx
    459b:	4c 89 f2             	mov    %r14,%rdx
    459e:	4c 89 e7             	mov    %r12,%rdi
    45a1:	48 b8 29 43 00 00 00 	movabs $0x4329,%rax
    45a8:	00 00 00 
    45ab:	ff d0                	call   *%rax
    45ad:	85 c0                	test   %eax,%eax
    45af:	7f 1f                	jg     0x45d0
    45b1:	48 b8 12 5c 00 00 00 	movabs $0x5c12,%rax
    45b8:	00 00 00 
    45bb:	49 8b 7d 00          	mov    0x0(%r13),%rdi
    45bf:	ff d0                	call   *%rax
    45c1:	48 be c4 c9 00 00 00 	movabs $0xc9c4,%rsi
    45c8:	00 00 00 
    45cb:	e9 62 ff ff ff       	jmp    0x4532
    45d0:	48 a1 28 f8 00 00 00 	movabs 0xf828,%rax
    45d7:	00 00 00 
    45da:	49 8b 16             	mov    (%r14),%rdx
    45dd:	48 8b 40 60          	mov    0x60(%rax),%rax
    45e1:	48 8b b8 e8 00 00 00 	mov    0xe8(%rax),%rdi
    45e8:	48 b8 30 f8 00 00 00 	movabs $0xf830,%rax
    45ef:	00 00 00 
    45f2:	48 8b 30             	mov    (%rax),%rsi
    45f5:	48 b8 90 11 00 00 00 	movabs $0x1190,%rax
    45fc:	00 00 00 
    45ff:	ff d0                	call   *%rax
    4601:	48 85 c0             	test   %rax,%rax
    4604:	74 4d                	je     0x4653
    4606:	48 ba 02 00 00 00 00 	movabs $0x8000000000000002,%rdx
    460d:	00 00 80 
    4610:	49 8b 7d 00          	mov    0x0(%r13),%rdi
    4614:	48 39 d0             	cmp    %rdx,%rax
    4617:	48 b8 12 5c 00 00 00 	movabs $0x5c12,%rax
    461e:	00 00 00 
    4621:	74 11                	je     0x4634
    4623:	ff d0                	call   *%rax
    4625:	48 be 00 ca 00 00 00 	movabs $0xca00,%rsi
    462c:	00 00 00 
    462f:	e9 fe fe ff ff       	jmp    0x4532
    4634:	ff d0                	call   *%rax
    4636:	31 c0                	xor    %eax,%eax
    4638:	48 bf 20 ca 00 00 00 	movabs $0xca20,%rdi
    463f:	00 00 00 
    4642:	48 ba 0a a6 00 00 00 	movabs $0xa60a,%rdx
    4649:	00 00 00 
    464c:	ff d2                	call   *%rdx
    464e:	e9 85 fe ff ff       	jmp    0x44d8
    4653:	48 b8 80 f8 00 00 00 	movabs $0xf880,%rax
    465a:	00 00 00 
    465d:	c7 00 01 00 00 00    	movl   $0x1,(%rax)
    4663:	48 85 db             	test   %rbx,%rbx
    4666:	74 07                	je     0x466f
    4668:	49 8b 04 24          	mov    (%r12),%rax
    466c:	48 89 03             	mov    %rax,(%rbx)
    466f:	48 85 ed             	test   %rbp,%rbp
    4672:	74 20                	je     0x4694
    4674:	48 b8 b0 f8 00 00 00 	movabs $0xf8b0,%rax
    467b:	00 00 00 
    467e:	49 8b 14 24          	mov    (%r12),%rdx
    4682:	48 8b 30             	mov    (%rax),%rsi
    4685:	48 89 ef             	mov    %rbp,%rdi
    4688:	48 b8 59 97 00 00 00 	movabs $0x9759,%rax
    468f:	00 00 00 
    4692:	ff d0                	call   *%rax
    4694:	48 83 3c 24 00       	cmpq   $0x0,(%rsp)
    4699:	74 0a                	je     0x46a5
    469b:	49 8b 06             	mov    (%r14),%rax
    469e:	48 8b 1c 24          	mov    (%rsp),%rbx
    46a2:	48 89 03             	mov    %rax,(%rbx)
    46a5:	48 83 7c 24 08 00    	cmpq   $0x0,0x8(%rsp)
    46ab:	74 0b                	je     0x46b8
    46ad:	49 8b 07             	mov    (%r15),%rax
    46b0:	48 8b 5c 24 08       	mov    0x8(%rsp),%rbx
    46b5:	48 89 03             	mov    %rax,(%rbx)
    46b8:	48 83 7c 24 10 00    	cmpq   $0x0,0x10(%rsp)
    46be:	74 10                	je     0x46d0
    46c0:	a1 90 f8 00 00 00 00 	movabs 0xf890,%eax
    46c7:	00 00 
    46c9:	48 8b 4c 24 10       	mov    0x10(%rsp),%rcx
    46ce:	89 01                	mov    %eax,(%rcx)
    46d0:	31 c0                	xor    %eax,%eax
    46d2:	83 7c 24 1c 00       	cmpl   $0x0,0x1c(%rsp)
    46d7:	75 1e                	jne    0x46f7
    46d9:	48 bf e8 3f 00 00 00 	movabs $0x3fe8,%rdi
    46e0:	00 00 00 
    46e3:	89 04 24             	mov    %eax,(%rsp)
    46e6:	31 f6                	xor    %esi,%esi
    46e8:	48 ba 49 13 00 00 00 	movabs $0x1349,%rdx
    46ef:	00 00 00 
    46f2:	ff d2                	call   *%rdx
    46f4:	8b 04 24             	mov    (%rsp),%eax
    46f7:	48 83 c4 38          	add    $0x38,%rsp
    46fb:	5b                   	pop    %rbx
    46fc:	5d                   	pop    %rbp
    46fd:	41 5c                	pop    %r12
    46ff:	41 5d                	pop    %r13
    4701:	41 5e                	pop    %r14
    4703:	41 5f                	pop    %r15
    4705:	c3                   	ret    
    4706:	48 83 ec 18          	sub    $0x18,%rsp
    470a:	45 31 c0             	xor    %r8d,%r8d
    470d:	31 d2                	xor    %edx,%edx
    470f:	31 f6                	xor    %esi,%esi
    4711:	48 c7 04 24 00 00 00 	movq   $0x0,(%rsp)
    4718:	00 
    4719:	48 8d 4c 24 08       	lea    0x8(%rsp),%rcx
    471e:	48 89 e7             	mov    %rsp,%rdi
    4721:	48 b8 29 43 00 00 00 	movabs $0x4329,%rax
    4728:	00 00 00 
    472b:	ff d0                	call   *%rax
    472d:	85 c0                	test   %eax,%eax
    472f:	79 21                	jns    0x4752
    4731:	48 be 48 ca 00 00 00 	movabs $0xca48,%rsi
    4738:	00 00 00 
    473b:	bf 1d 00 00 00       	mov    $0x1d,%edi
    4740:	31 c0                	xor    %eax,%eax
    4742:	48 ba 43 86 00 00 00 	movabs $0x8643,%rdx
    4749:	00 00 00 
    474c:	ff d2                	call   *%rdx
    474e:	31 c0                	xor    %eax,%eax
    4750:	eb 10                	jmp    0x4762
    4752:	48 8b 04 24          	mov    (%rsp),%rax
    4756:	48 05 ff 1f 00 00    	add    $0x1fff,%rax
    475c:	48 25 00 f0 ff ff    	and    $0xfffffffffffff000,%rax
    4762:	48 83 c4 18          	add    $0x18,%rsp
    4766:	c3                   	ret    
    4767:	53                   	push   %rbx
    4768:	48 bb 88 f8 00 00 00 	movabs $0xf888,%rbx
    476f:	00 00 00 
    4772:	48 8b 03             	mov    (%rbx),%rax
    4775:	48 85 c0             	test   %rax,%rax
    4778:	74 15                	je     0x478f
    477a:	48 8b 70 08          	mov    0x8(%rax),%rsi
    477e:	48 8b 38             	mov    (%rax),%rdi
    4781:	48 b8 8f 40 00 00 00 	movabs $0x408f,%rax
    4788:	00 00 00 
    478b:	ff d0                	call   *%rax
    478d:	eb e3                	jmp    0x4772
    478f:	5b                   	pop    %rbx
    4790:	c3                   	ret    
    4791:	41 57                	push   %r15
    4793:	bf 06 00 00 00       	mov    $0x6,%edi
    4798:	41 56                	push   %r14
    479a:	41 55                	push   %r13
    479c:	41 54                	push   %r12
    479e:	55                   	push   %rbp
    479f:	48 bd f5 42 00 00 00 	movabs $0x42f5,%rbp
    47a6:	00 00 00 
    47a9:	53                   	push   %rbx
    47aa:	48 83 ec 58          	sub    $0x58,%rsp
    47ae:	ff d5                	call   *%rbp
    47b0:	48 85 c0             	test   %rax,%rax
    47b3:	75 0f                	jne    0x47c4
    47b5:	48 bf 67 ca 00 00 00 	movabs $0xca67,%rdi
    47bc:	00 00 00 
    47bf:	e9 8f 00 00 00       	jmp    0x4853
    47c4:	45 31 c0             	xor    %r8d,%r8d
    47c7:	31 d2                	xor    %edx,%edx
    47c9:	49 89 c4             	mov    %rax,%r12
    47cc:	48 89 c6             	mov    %rax,%rsi
    47cf:	48 c7 44 24 18 00 30 	movq   $0x3000,0x18(%rsp)
    47d6:	00 00 
    47d8:	48 8d 4c 24 20       	lea    0x20(%rsp),%rcx
    47dd:	48 8d 7c 24 18       	lea    0x18(%rsp),%rdi
    47e2:	48 bb 29 43 00 00 00 	movabs $0x4329,%rbx
    47e9:	00 00 00 
    47ec:	ff d3                	call   *%rbx
    47ee:	85 c0                	test   %eax,%eax
    47f0:	75 53                	jne    0x4845
    47f2:	4c 89 e7             	mov    %r12,%rdi
    47f5:	be 06 00 00 00       	mov    $0x6,%esi
    47fa:	48 b8 8f 40 00 00 00 	movabs $0x408f,%rax
    4801:	00 00 00 
    4804:	ff d0                	call   *%rax
    4806:	48 8b 7c 24 20       	mov    0x20(%rsp),%rdi
    480b:	48 c1 e7 05          	shl    $0x5,%rdi
    480f:	48 03 7c 24 18       	add    0x18(%rsp),%rdi
    4814:	48 89 7c 24 18       	mov    %rdi,0x18(%rsp)
    4819:	48 81 c7 ff 0f 00 00 	add    $0xfff,%rdi
    4820:	48 c1 ef 0c          	shr    $0xc,%rdi
    4824:	48 01 ff             	add    %rdi,%rdi
    4827:	ff d5                	call   *%rbp
    4829:	49 89 c4             	mov    %rax,%r12
    482c:	48 85 c0             	test   %rax,%rax
    482f:	74 84                	je     0x47b5
    4831:	45 31 c0             	xor    %r8d,%r8d
    4834:	48 8d 4c 24 20       	lea    0x20(%rsp),%rcx
    4839:	31 d2                	xor    %edx,%edx
    483b:	48 89 c6             	mov    %rax,%rsi
    483e:	48 8d 7c 24 18       	lea    0x18(%rsp),%rdi
    4843:	ff d3                	call   *%rbx
    4845:	85 c0                	test   %eax,%eax
    4847:	79 18                	jns    0x4861
    4849:	48 bf 7e ca 00 00 00 	movabs $0xca7e,%rdi
    4850:	00 00 00 
    4853:	48 ba 03 aa 00 00 00 	movabs $0xaa03,%rdx
    485a:	00 00 00 
    485d:	31 c0                	xor    %eax,%eax
    485f:	ff d2                	call   *%rdx
    4861:	4c 8b 74 24 18       	mov    0x18(%rsp),%r14
    4866:	4c 8b 7c 24 20       	mov    0x20(%rsp),%r15
    486b:	4c 89 e5             	mov    %r12,%rbp
    486e:	bb ff ff ff ff       	mov    $0xffffffff,%ebx
    4873:	4d 01 e6             	add    %r12,%r14
    4876:	4d 89 f5             	mov    %r14,%r13
    4879:	49 39 ee             	cmp    %rbp,%r14
    487c:	0f 86 a8 00 00 00    	jbe    0x492a
    4882:	83 7d 00 07          	cmpl   $0x7,0x0(%rbp)
    4886:	0f 85 96 00 00 00    	jne    0x4922
    488c:	48 8b 4d 08          	mov    0x8(%rbp),%rcx
    4890:	48 39 d9             	cmp    %rbx,%rcx
    4893:	0f 87 89 00 00 00    	ja     0x4922
    4899:	48 8b 55 18          	mov    0x18(%rbp),%rdx
    489d:	48 89 d0             	mov    %rdx,%rax
    48a0:	48 c1 e0 0c          	shl    $0xc,%rax
    48a4:	48 01 c8             	add    %rcx,%rax
    48a7:	48 3d 00 00 10 00    	cmp    $0x100000,%rax
    48ad:	76 73                	jbe    0x4922
    48af:	48 85 d2             	test   %rdx,%rdx
    48b2:	74 6e                	je     0x4922
    48b4:	4c 89 fa             	mov    %r15,%rdx
    48b7:	48 89 ee             	mov    %rbp,%rsi
    48ba:	4c 89 ef             	mov    %r13,%rdi
    48bd:	48 b8 59 97 00 00 00 	movabs $0x9759,%rax
    48c4:	00 00 00 
    48c7:	ff d0                	call   *%rax
    48c9:	48 8b 55 08          	mov    0x8(%rbp),%rdx
    48cd:	48 81 fa ff ff 0f 00 	cmp    $0xfffff,%rdx
    48d4:	77 18                	ja     0x48ee
    48d6:	b8 ff 0f 10 00       	mov    $0x100fff,%eax
    48db:	48 c7 45 08 00 00 10 	movq   $0x100000,0x8(%rbp)
    48e2:	00 
    48e3:	48 29 d0             	sub    %rdx,%rax
    48e6:	48 c1 e8 0c          	shr    $0xc,%rax
    48ea:	48 29 45 18          	sub    %rax,0x18(%rbp)
    48ee:	49 8b 45 08          	mov    0x8(%r13),%rax
    48f2:	49 8b 55 18          	mov    0x18(%r13),%rdx
    48f6:	48 05 ff 0f 00 00    	add    $0xfff,%rax
    48fc:	48 c1 e8 0c          	shr    $0xc,%rax
    4900:	48 01 c2             	add    %rax,%rdx
    4903:	48 81 fa ff ff 0f 00 	cmp    $0xfffff,%rdx
    490a:	76 0c                	jbe    0x4918
    490c:	ba ff ff 0f 00       	mov    $0xfffff,%edx
    4911:	48 29 c2             	sub    %rax,%rdx
    4914:	49 89 55 18          	mov    %rdx,0x18(%r13)
    4918:	49 83 7d 18 00       	cmpq   $0x0,0x18(%r13)
    491d:	74 03                	je     0x4922
    491f:	4d 01 fd             	add    %r15,%r13
    4922:	4c 01 fd             	add    %r15,%rbp
    4925:	e9 4f ff ff ff       	jmp    0x4879
    492a:	4c 8b 7c 24 20       	mov    0x20(%rsp),%r15
    492f:	4c 89 f0             	mov    %r14,%rax
    4932:	31 db                	xor    %ebx,%ebx
    4934:	4c 39 e8             	cmp    %r13,%rax
    4937:	73 09                	jae    0x4942
    4939:	48 03 58 18          	add    0x18(%rax),%rbx
    493d:	4c 01 f8             	add    %r15,%rax
    4940:	eb f2                	jmp    0x4934
    4942:	b8 00 40 06 00       	mov    $0x64000,%eax
    4947:	48 c1 eb 02          	shr    $0x2,%rbx
    494b:	4d 89 f2             	mov    %r14,%r10
    494e:	48 39 c3             	cmp    %rax,%rbx
    4951:	48 0f 47 d8          	cmova  %rax,%rbx
    4955:	b8 00 01 00 00       	mov    $0x100,%eax
    495a:	48 39 c3             	cmp    %rax,%rbx
    495d:	48 0f 42 d8          	cmovb  %rax,%rbx
    4961:	4c 89 d0             	mov    %r10,%rax
    4964:	4d 39 d5             	cmp    %r10,%r13
    4967:	76 6c                	jbe    0x49d5
    4969:	4d 01 fa             	add    %r15,%r10
    496c:	49 89 c1             	mov    %rax,%r9
    496f:	4c 89 d2             	mov    %r10,%rdx
    4972:	49 39 d5             	cmp    %rdx,%r13
    4975:	76 11                	jbe    0x4988
    4977:	48 8b 4a 18          	mov    0x18(%rdx),%rcx
    497b:	49 39 49 18          	cmp    %rcx,0x18(%r9)
    497f:	4c 0f 42 ca          	cmovb  %rdx,%r9
    4983:	4c 01 fa             	add    %r15,%rdx
    4986:	eb ea                	jmp    0x4972
    4988:	4c 39 c8             	cmp    %r9,%rax
    498b:	74 d4                	je     0x4961
    498d:	48 8d 7c 24 28       	lea    0x28(%rsp),%rdi
    4992:	b9 0a 00 00 00       	mov    $0xa,%ecx
    4997:	48 89 c6             	mov    %rax,%rsi
    499a:	f3 a5                	rep movsl %ds:(%rsi),%es:(%rdi)
    499c:	b9 0a 00 00 00       	mov    $0xa,%ecx
    49a1:	48 89 c7             	mov    %rax,%rdi
    49a4:	4c 89 ce             	mov    %r9,%rsi
    49a7:	f3 a5                	rep movsl %ds:(%rsi),%es:(%rdi)
    49a9:	48 8d 74 24 28       	lea    0x28(%rsp),%rsi
    49ae:	b9 0a 00 00 00       	mov    $0xa,%ecx
    49b3:	4c 89 cf             	mov    %r9,%rdi
    49b6:	f3 a5                	rep movsl %ds:(%rsi),%es:(%rdi)
    49b8:	eb a7                	jmp    0x4961
    49ba:	48 b8 35 5d 00 00 00 	movabs $0x5d35,%rax
    49c1:	00 00 00 
    49c4:	48 89 ee             	mov    %rbp,%rsi
    49c7:	48 c1 e6 0c          	shl    $0xc,%rsi
    49cb:	ff d0                	call   *%rax
    49cd:	48 29 eb             	sub    %rbp,%rbx
    49d0:	74 7c                	je     0x4a4e
    49d2:	4d 01 fe             	add    %r15,%r14
    49d5:	4d 39 f5             	cmp    %r14,%r13
    49d8:	76 65                	jbe    0x4a3f
    49da:	49 8b 6e 18          	mov    0x18(%r14),%rbp
    49de:	4d 8b 4e 08          	mov    0x8(%r14),%r9
    49e2:	48 39 dd             	cmp    %rbx,%rbp
    49e5:	76 0d                	jbe    0x49f4
    49e7:	48 29 dd             	sub    %rbx,%rbp
    49ea:	48 c1 e5 0c          	shl    $0xc,%rbp
    49ee:	49 01 e9             	add    %rbp,%r9
    49f1:	48 89 dd             	mov    %rbx,%rbp
    49f4:	4c 89 cf             	mov    %r9,%rdi
    49f7:	4c 89 4c 24 08       	mov    %r9,0x8(%rsp)
    49fc:	b9 01 00 00 00       	mov    $0x1,%ecx
    4a01:	48 89 ee             	mov    %rbp,%rsi
    4a04:	48 b8 1b 41 00 00 00 	movabs $0x411b,%rax
    4a0b:	00 00 00 
    4a0e:	ba 02 00 00 00       	mov    $0x2,%edx
    4a13:	ff d0                	call   *%rax
    4a15:	4c 8b 4c 24 08       	mov    0x8(%rsp),%r9
    4a1a:	48 85 c0             	test   %rax,%rax
    4a1d:	48 89 c7             	mov    %rax,%rdi
    4a20:	75 98                	jne    0x49ba
    4a22:	89 ea                	mov    %ebp,%edx
    4a24:	4c 89 ce             	mov    %r9,%rsi
    4a27:	31 c0                	xor    %eax,%eax
    4a29:	48 bf 94 ca 00 00 00 	movabs $0xca94,%rdi
    4a30:	00 00 00 
    4a33:	48 b9 03 aa 00 00 00 	movabs $0xaa03,%rcx
    4a3a:	00 00 00 
    4a3d:	ff d1                	call   *%rcx
    4a3f:	48 bf c9 ca 00 00 00 	movabs $0xcac9,%rdi
    4a46:	00 00 00 
    4a49:	e9 05 fe ff ff       	jmp    0x4853
    4a4e:	4c 89 e7             	mov    %r12,%rdi
    4a51:	be 06 00 00 00       	mov    $0x6,%esi
    4a56:	48 b8 8f 40 00 00 00 	movabs $0x408f,%rax
    4a5d:	00 00 00 
    4a60:	ff d0                	call   *%rax
    4a62:	48 83 c4 58          	add    $0x58,%rsp
    4a66:	5b                   	pop    %rbx
    4a67:	5d                   	pop    %rbp
    4a68:	41 5c                	pop    %r12
    4a6a:	41 5d                	pop    %r13
    4a6c:	41 5e                	pop    %r14
    4a6e:	41 5f                	pop    %r15
    4a70:	c3                   	ret    
    4a71:	89 f9                	mov    %edi,%ecx
    4a73:	c1 e9 10             	shr    $0x10,%ecx
    4a76:	66 85 ff             	test   %di,%di
    4a79:	75 2c                	jne    0x4aa7
    4a7b:	8d 41 ff             	lea    -0x1(%rcx),%eax
    4a7e:	66 83 f8 1e          	cmp    $0x1e,%ax
    4a82:	77 70                	ja     0x4af4
    4a84:	83 f9 09             	cmp    $0x9,%ecx
    4a87:	74 6b                	je     0x4af4
    4a89:	66 83 f9 0d          	cmp    $0xd,%cx
    4a8d:	77 0c                	ja     0x4a9b
    4a8f:	b8 00 25 00 00       	mov    $0x2500,%eax
    4a94:	48 d3 e8             	shr    %cl,%rax
    4a97:	a8 01                	test   $0x1,%al
    4a99:	75 59                	jne    0x4af4
    4a9b:	83 c1 60             	add    $0x60,%ecx
    4a9e:	0f b7 c1             	movzwl %cx,%eax
    4aa1:	0d 00 00 00 02       	or     $0x2000000,%eax
    4aa6:	c3                   	ret    
    4aa7:	66 83 f9 0d          	cmp    $0xd,%cx
    4aab:	0f 94 c2             	sete   %dl
    4aae:	66 83 ff 0d          	cmp    $0xd,%di
    4ab2:	75 09                	jne    0x4abd
    4ab4:	b8 0d 00 00 00       	mov    $0xd,%eax
    4ab9:	84 d2                	test   %dl,%dl
    4abb:	75 3a                	jne    0x4af7
    4abd:	66 83 ff 17          	cmp    $0x17,%di
    4ac1:	77 11                	ja     0x4ad4
    4ac3:	48 b8 a0 c1 00 00 00 	movabs $0xc1a0,%rax
    4aca:	00 00 00 
    4acd:	0f b7 ff             	movzwl %di,%edi
    4ad0:	8b 04 b8             	mov    (%rax,%rdi,4),%eax
    4ad3:	c3                   	ret    
    4ad4:	8d 41 e0             	lea    -0x20(%rcx),%eax
    4ad7:	8d 71 f8             	lea    -0x8(%rcx),%esi
    4ada:	66 83 f8 5f          	cmp    $0x5f,%ax
    4ade:	0f 96 c0             	setbe  %al
    4ae1:	66 83 fe 02          	cmp    $0x2,%si
    4ae5:	40 0f 96 c6          	setbe  %sil
    4ae9:	40 08 f0             	or     %sil,%al
    4aec:	75 06                	jne    0x4af4
    4aee:	31 c0                	xor    %eax,%eax
    4af0:	84 d2                	test   %dl,%dl
    4af2:	74 03                	je     0x4af7
    4af4:	0f b7 c1             	movzwl %cx,%eax
    4af7:	c3                   	ret    
    4af8:	48 85 ff             	test   %rdi,%rdi
    4afb:	0f 84 92 00 00 00    	je     0x4b93
    4b01:	41 56                	push   %r14
    4b03:	49 89 f8             	mov    %rdi,%r8
    4b06:	49 be b8 f8 00 00 00 	movabs $0xf8b8,%r14
    4b0d:	00 00 00 
    4b10:	41 55                	push   %r13
    4b12:	41 8b 3e             	mov    (%r14),%edi
    4b15:	49 bd 71 4a 00 00 00 	movabs $0x4a71,%r13
    4b1c:	00 00 00 
    4b1f:	41 54                	push   %r12
    4b21:	49 89 d4             	mov    %rdx,%r12
    4b24:	55                   	push   %rbp
    4b25:	89 cd                	mov    %ecx,%ebp
    4b27:	53                   	push   %rbx
    4b28:	48 89 f3             	mov    %rsi,%rbx
    4b2b:	41 ff d5             	call   *%r13
    4b2e:	89 c2                	mov    %eax,%edx
    4b30:	85 c0                	test   %eax,%eax
    4b32:	75 2a                	jne    0x4b5e
    4b34:	49 8b 78 08          	mov    0x8(%r8),%rdi
    4b38:	4c 89 f2             	mov    %r14,%rdx
    4b3b:	4c 89 c6             	mov    %r8,%rsi
    4b3e:	48 b8 90 11 00 00 00 	movabs $0x1190,%rax
    4b45:	00 00 00 
    4b48:	ff d0                	call   *%rax
    4b4a:	48 85 c0             	test   %rax,%rax
    4b4d:	74 07                	je     0x4b56
    4b4f:	b8 2c 00 00 00       	mov    $0x2c,%eax
    4b54:	eb 34                	jmp    0x4b8a
    4b56:	41 8b 3e             	mov    (%r14),%edi
    4b59:	41 ff d5             	call   *%r13
    4b5c:	89 c2                	mov    %eax,%edx
    4b5e:	49 8b 06             	mov    (%r14),%rax
    4b61:	48 89 03             	mov    %rax,(%rbx)
    4b64:	a1 c0 f8 00 00 00 00 	movabs 0xf8c0,%eax
    4b6b:	00 00 
    4b6d:	89 43 08             	mov    %eax,0x8(%rbx)
    4b70:	31 c0                	xor    %eax,%eax
    4b72:	41 89 14 24          	mov    %edx,(%r12)
    4b76:	85 ed                	test   %ebp,%ebp
    4b78:	74 10                	je     0x4b8a
    4b7a:	48 b9 b8 f8 00 00 00 	movabs $0xf8b8,%rcx
    4b81:	00 00 00 
    4b84:	c7 01 00 00 00 00    	movl   $0x0,(%rcx)
    4b8a:	5b                   	pop    %rbx
    4b8b:	5d                   	pop    %rbp
    4b8c:	41 5c                	pop    %r12
    4b8e:	41 5d                	pop    %r13
    4b90:	41 5e                	pop    %r14
    4b92:	c3                   	ret    
    4b93:	b8 2c 00 00 00       	mov    $0x2c,%eax
    4b98:	c3                   	ret    
    4b99:	55                   	push   %rbp
    4b9a:	48 bd 50 f8 00 00 00 	movabs $0xf850,%rbp
    4ba1:	00 00 00 
    4ba4:	53                   	push   %rbx
    4ba5:	48 83 ec 28          	sub    $0x28,%rsp
    4ba9:	48 8b 45 00          	mov    0x0(%rbp),%rax
    4bad:	48 89 44 24 18       	mov    %rax,0x18(%rsp)
    4bb2:	48 b8 34 75 9e dd 62 	movabs $0x46987762dd9e7534,%rax
    4bb9:	77 98 46 
    4bbc:	48 89 44 24 08       	mov    %rax,0x8(%rsp)
    4bc1:	48 b8 8c 14 f5 85 17 	movabs $0xaa25a61785f5148c,%rax
    4bc8:	a6 25 aa 
    4bcb:	48 89 44 24 10       	mov    %rax,0x10(%rsp)
    4bd0:	48 b8 80 f8 00 00 00 	movabs $0xf880,%rax
    4bd7:	00 00 00 
    4bda:	83 38 00             	cmpl   $0x0,(%rax)
    4bdd:	75 32                	jne    0x4c11
    4bdf:	48 83 7f 38 00       	cmpq   $0x0,0x38(%rdi)
    4be4:	48 89 fb             	mov    %rdi,%rbx
    4be7:	75 28                	jne    0x4c11
    4be9:	48 a1 28 f8 00 00 00 	movabs 0xf828,%rax
    4bf0:	00 00 00 
    4bf3:	ba 02 00 00 00       	mov    $0x2,%edx
    4bf8:	48 8d 74 24 08       	lea    0x8(%rsp),%rsi
    4bfd:	48 8b 78 28          	mov    0x28(%rax),%rdi
    4c01:	48 b8 ec 2d 00 00 00 	movabs $0x2dec,%rax
    4c08:	00 00 00 
    4c0b:	ff d0                	call   *%rax
    4c0d:	48 89 43 38          	mov    %rax,0x38(%rbx)
    4c11:	48 8b 44 24 18       	mov    0x18(%rsp),%rax
    4c16:	48 2b 45 00          	sub    0x0(%rbp),%rax
    4c1a:	74 0c                	je     0x4c28
    4c1c:	48 b8 40 3e 00 00 00 	movabs $0x3e40,%rax
    4c23:	00 00 00 
    4c26:	ff d0                	call   *%rax
    4c28:	48 83 c4 28          	add    $0x28,%rsp
    4c2c:	31 c0                	xor    %eax,%eax
    4c2e:	5b                   	pop    %rbx
    4c2f:	5d                   	pop    %rbp
    4c30:	c3                   	ret    
    4c31:	48 b8 80 f8 00 00 00 	movabs $0xf880,%rax
    4c38:	00 00 00 
    4c3b:	83 38 00             	cmpl   $0x0,(%rax)
    4c3e:	75 2a                	jne    0x4c6a
    4c40:	48 b8 e0 e3 00 00 00 	movabs $0xe3e0,%rax
    4c47:	00 00 00 
    4c4a:	83 38 01             	cmpl   $0x1,(%rax)
    4c4d:	75 1b                	jne    0x4c6a
    4c4f:	48 a1 28 f8 00 00 00 	movabs 0xf828,%rax
    4c56:	00 00 00 
    4c59:	48 8b 40 40          	mov    0x40(%rax),%rax
    4c5d:	48 8b 50 48          	mov    0x48(%rax),%rdx
    4c61:	0f b7 42 0c          	movzwl 0xc(%rdx),%eax
    4c65:	8b 52 10             	mov    0x10(%rdx),%edx
    4c68:	eb 04                	jmp    0x4c6e
    4c6a:	31 c0                	xor    %eax,%eax
    4c6c:	31 d2                	xor    %edx,%edx
    4c6e:	c1 e2 10             	shl    $0x10,%edx
    4c71:	09 d0                	or     %edx,%eax
    4c73:	c3                   	ret    
    4c74:	48 b8 80 f8 00 00 00 	movabs $0xf880,%rax
    4c7b:	00 00 00 
    4c7e:	83 38 00             	cmpl   $0x0,(%rax)
    4c81:	75 24                	jne    0x4ca7
    4c83:	48 a1 28 f8 00 00 00 	movabs 0xf828,%rax
    4c8a:	00 00 00 
    4c8d:	48 63 d6             	movslq %esi,%rdx
    4c90:	4c 8b 40 40          	mov    0x40(%rax),%r8
    4c94:	48 b8 90 11 00 00 00 	movabs $0x1190,%rax
    4c9b:	00 00 00 
    4c9e:	49 8b 78 40          	mov    0x40(%r8),%rdi
    4ca2:	4c 89 c6             	mov    %r8,%rsi
    4ca5:	ff e0                	jmp    *%rax
    4ca7:	c3                   	ret    
    4ca8:	48 b8 80 f8 00 00 00 	movabs $0xf880,%rax
    4caf:	00 00 00 
    4cb2:	89 f2                	mov    %esi,%edx
    4cb4:	83 38 00             	cmpl   $0x0,(%rax)
    4cb7:	75 51                	jne    0x4d0a
    4cb9:	48 a1 28 f8 00 00 00 	movabs 0xf828,%rax
    4cc0:	00 00 00 
    4cc3:	48 8b 70 40          	mov    0x40(%rax),%rsi
    4cc7:	83 fa 01             	cmp    $0x1,%edx
    4cca:	74 14                	je     0x4ce0
    4ccc:	83 fa 02             	cmp    $0x2,%edx
    4ccf:	74 1a                	je     0x4ceb
    4cd1:	85 d2                	test   %edx,%edx
    4cd3:	75 35                	jne    0x4d0a
    4cd5:	48 8b 7e 28          	mov    0x28(%rsi),%rdi
    4cd9:	ba 07 00 00 00       	mov    $0x7,%edx
    4cde:	eb 1e                	jmp    0x4cfe
    4ce0:	a0 a9 e6 00 00 00 00 	movabs 0xe6a9,%al
    4ce7:	00 00 
    4ce9:	eb 09                	jmp    0x4cf4
    4ceb:	a0 a8 e6 00 00 00 00 	movabs 0xe6a8,%al
    4cf2:	00 00 
    4cf4:	48 89 c2             	mov    %rax,%rdx
    4cf7:	48 8b 7e 28          	mov    0x28(%rsi),%rdi
    4cfb:	83 e2 7f             	and    $0x7f,%edx
    4cfe:	48 b8 90 11 00 00 00 	movabs $0x1190,%rax
    4d05:	00 00 00 
    4d08:	ff e0                	jmp    *%rax
    4d0a:	c3                   	ret    
    4d0b:	48 b8 80 f8 00 00 00 	movabs $0xf880,%rax
    4d12:	00 00 00 
    4d15:	83 38 00             	cmpl   $0x0,(%rax)
    4d18:	75 64                	jne    0x4d7e
    4d1a:	48 b8 e0 e3 00 00 00 	movabs $0xe3e0,%rax
    4d21:	00 00 00 
    4d24:	83 38 01             	cmpl   $0x1,(%rax)
    4d27:	75 55                	jne    0x4d7e
    4d29:	48 a1 28 f8 00 00 00 	movabs 0xf828,%rax
    4d30:	00 00 00 
    4d33:	41 54                	push   %r12
    4d35:	31 d2                	xor    %edx,%edx
    4d37:	49 bc 90 11 00 00 00 	movabs $0x1190,%r12
    4d3e:	00 00 00 
    4d41:	55                   	push   %rbp
    4d42:	53                   	push   %rbx
    4d43:	48 8b 68 40          	mov    0x40(%rax),%rbp
    4d47:	48 8b 45 48          	mov    0x48(%rbp),%rax
    4d4b:	48 8b 7d 28          	mov    0x28(%rbp),%rdi
    4d4f:	48 89 ee             	mov    %rbp,%rsi
    4d52:	8b 58 08             	mov    0x8(%rax),%ebx
    4d55:	41 ff d4             	call   *%r12
    4d58:	48 8b 7d 30          	mov    0x30(%rbp),%rdi
    4d5c:	48 89 ee             	mov    %rbp,%rsi
    4d5f:	48 b8 82 11 00 00 00 	movabs $0x1182,%rax
    4d66:	00 00 00 
    4d69:	ff d0                	call   *%rax
    4d6b:	48 8b 7d 28          	mov    0x28(%rbp),%rdi
    4d6f:	48 63 d3             	movslq %ebx,%rdx
    4d72:	48 89 ee             	mov    %rbp,%rsi
    4d75:	5b                   	pop    %rbx
    4d76:	4c 89 e0             	mov    %r12,%rax
    4d79:	5d                   	pop    %rbp
    4d7a:	41 5c                	pop    %r12
    4d7c:	ff e0                	jmp    *%rax
    4d7e:	c3                   	ret    
    4d7f:	48 b8 e0 e3 00 00 00 	movabs $0xe3e0,%rax
    4d86:	00 00 00 
    4d89:	83 38 01             	cmpl   $0x1,(%rax)
    4d8c:	75 31                	jne    0x4dbf
    4d8e:	31 f6                	xor    %esi,%esi
    4d90:	50                   	push   %rax
    4d91:	48 b8 74 4c 00 00 00 	movabs $0x4c74,%rax
    4d98:	00 00 00 
    4d9b:	ff d0                	call   *%rax
    4d9d:	31 ff                	xor    %edi,%edi
    4d9f:	48 b8 48 2e 00 00 00 	movabs $0x2e48,%rax
    4da6:	00 00 00 
    4da9:	ff d0                	call   *%rax
    4dab:	48 b8 e0 e3 00 00 00 	movabs $0xe3e0,%rax
    4db2:	00 00 00 
    4db5:	c7 00 ff ff ff ff    	movl   $0xffffffff,(%rax)
    4dbb:	31 c0                	xor    %eax,%eax
    4dbd:	5a                   	pop    %rdx
    4dbe:	c3                   	ret    
    4dbf:	31 c0                	xor    %eax,%eax
    4dc1:	c3                   	ret    
    4dc2:	48 ba 80 f8 00 00 00 	movabs $0xf880,%rdx
    4dc9:	00 00 00 
    4dcc:	b8 0d 00 00 00       	mov    $0xd,%eax
    4dd1:	83 3a 00             	cmpl   $0x0,(%rdx)
    4dd4:	0f 85 8a 00 00 00    	jne    0x4e64
    4dda:	a1 e0 e3 00 00 00 00 	movabs 0xe3e0,%eax
    4de1:	00 00 
    4de3:	83 f8 ff             	cmp    $0xffffffff,%eax
    4de6:	74 09                	je     0x4df1
    4de8:	83 f8 01             	cmp    $0x1,%eax
    4deb:	19 c0                	sbb    %eax,%eax
    4ded:	83 e0 0d             	and    $0xd,%eax
    4df0:	c3                   	ret    
    4df1:	48 b8 48 2e 00 00 00 	movabs $0x2e48,%rax
    4df8:	00 00 00 
    4dfb:	55                   	push   %rbp
    4dfc:	48 89 fd             	mov    %rdi,%rbp
    4dff:	bf 01 00 00 00       	mov    $0x1,%edi
    4e04:	ff d0                	call   *%rax
    4e06:	85 c0                	test   %eax,%eax
    4e08:	75 32                	jne    0x4e3c
    4e0a:	48 be db ca 00 00 00 	movabs $0xcadb,%rsi
    4e11:	00 00 00 
    4e14:	bf 0d 00 00 00       	mov    $0xd,%edi
    4e19:	48 ba 43 86 00 00 00 	movabs $0x8643,%rdx
    4e20:	00 00 00 
    4e23:	ff d2                	call   *%rdx
    4e25:	48 b8 e0 e3 00 00 00 	movabs $0xe3e0,%rax
    4e2c:	00 00 00 
    4e2f:	c7 00 00 00 00 00    	movl   $0x0,(%rax)
    4e35:	b8 0d 00 00 00       	mov    $0xd,%eax
    4e3a:	eb 26                	jmp    0x4e62
    4e3c:	48 b8 74 4c 00 00 00 	movabs $0x4c74,%rax
    4e43:	00 00 00 
    4e46:	be 01 00 00 00       	mov    $0x1,%esi
    4e4b:	48 89 ef             	mov    %rbp,%rdi
    4e4e:	ff d0                	call   *%rax
    4e50:	48 b8 e0 e3 00 00 00 	movabs $0xe3e0,%rax
    4e57:	00 00 00 
    4e5a:	c7 00 01 00 00 00    	movl   $0x1,(%rax)
    4e60:	31 c0                	xor    %eax,%eax
    4e62:	5d                   	pop    %rbp
    4e63:	c3                   	ret    
    4e64:	c3                   	ret    
    4e65:	48 b8 c2 4d 00 00 00 	movabs $0x4dc2,%rax
    4e6c:	00 00 00 
    4e6f:	53                   	push   %rbx
    4e70:	89 f3                	mov    %esi,%ebx
    4e72:	ff d0                	call   *%rax
    4e74:	85 c0                	test   %eax,%eax
    4e76:	75 2a                	jne    0x4ea2
    4e78:	48 a1 28 f8 00 00 00 	movabs 0xf828,%rax
    4e7f:	00 00 00 
    4e82:	89 d9                	mov    %ebx,%ecx
    4e84:	0f b7 d3             	movzwl %bx,%edx
    4e87:	5b                   	pop    %rbx
    4e88:	c1 e9 10             	shr    $0x10,%ecx
    4e8b:	48 8b 70 40          	mov    0x40(%rax),%rsi
    4e8f:	0f b7 c9             	movzwl %cx,%ecx
    4e92:	48 b8 9e 11 00 00 00 	movabs $0x119e,%rax
    4e99:	00 00 00 
    4e9c:	48 8b 7e 38          	mov    0x38(%rsi),%rdi
    4ea0:	ff e0                	jmp    *%rax
    4ea2:	5b                   	pop    %rbx
    4ea3:	c3                   	ret    
    4ea4:	48 b8 c2 4d 00 00 00 	movabs $0x4dc2,%rax
    4eab:	00 00 00 
    4eae:	41 54                	push   %r12
    4eb0:	55                   	push   %rbp
    4eb1:	53                   	push   %rbx
    4eb2:	48 89 f3             	mov    %rsi,%rbx
    4eb5:	48 83 ec 40          	sub    $0x40,%rsp
    4eb9:	ff d0                	call   *%rax
    4ebb:	85 c0                	test   %eax,%eax
    4ebd:	0f 85 57 01 00 00    	jne    0x501a
    4ec3:	48 a1 28 f8 00 00 00 	movabs 0xf828,%rax
    4eca:	00 00 00 
    4ecd:	48 8b 68 40          	mov    0x40(%rax),%rbp
    4ed1:	8b 03                	mov    (%rbx),%eax
    4ed3:	25 ff ff 7f 00       	and    $0x7fffff,%eax
    4ed8:	3d ff ff 00 00       	cmp    $0xffff,%eax
    4edd:	76 32                	jbe    0x4f11
    4edf:	ba 3f 00 00 00       	mov    $0x3f,%edx
    4ee4:	66 8b 7b 06          	mov    0x6(%rbx),%di
    4ee8:	66 89 14 24          	mov    %dx,(%rsp)
    4eec:	31 f6                	xor    %esi,%esi
    4eee:	4c 8d 63 18          	lea    0x18(%rbx),%r12
    4ef2:	89 fa                	mov    %edi,%edx
    4ef4:	41 89 fb             	mov    %edi,%r11d
    4ef7:	66 c1 ea 03          	shr    $0x3,%dx
    4efb:	66 41 81 e3 f8 07    	and    $0x7f8,%r11w
    4f01:	41 89 d2             	mov    %edx,%r10d
    4f04:	0f b6 ca             	movzbl %dl,%ecx
    4f07:	ba 01 00 00 00       	mov    $0x1,%edx
    4f0c:	e9 a4 00 00 00       	jmp    0x4fb5
    4f11:	ba 02 25 00 00       	mov    $0x2502,%edx
    4f16:	3d 03 25 00 00       	cmp    $0x2503,%eax
    4f1b:	74 c7                	je     0x4ee4
    4f1d:	77 3e                	ja     0x4f5d
    4f1f:	ba ba 25 00 00       	mov    $0x25ba,%edx
    4f24:	3d 92 21 00 00       	cmp    $0x2192,%eax
    4f29:	74 b9                	je     0x4ee4
    4f2b:	77 18                	ja     0x4f45
    4f2d:	ba c4 25 00 00       	mov    $0x25c4,%edx
    4f32:	3d 90 21 00 00       	cmp    $0x2190,%eax
    4f37:	74 ab                	je     0x4ee4
    4f39:	ba b2 25 00 00       	mov    $0x25b2,%edx
    4f3e:	3d 91 21 00 00       	cmp    $0x2191,%eax
    4f43:	eb 50                	jmp    0x4f95
    4f45:	ba bc 25 00 00       	mov    $0x25bc,%edx
    4f4a:	3d 93 21 00 00       	cmp    $0x2193,%eax
    4f4f:	74 93                	je     0x4ee4
    4f51:	ba 00 25 00 00       	mov    $0x2500,%edx
    4f56:	3d 01 25 00 00       	cmp    $0x2501,%eax
    4f5b:	eb 38                	jmp    0x4f95
    4f5d:	ba 14 25 00 00       	mov    $0x2514,%edx
    4f62:	3d 17 25 00 00       	cmp    $0x2517,%eax
    4f67:	0f 84 77 ff ff ff    	je     0x4ee4
    4f6d:	77 1c                	ja     0x4f8b
    4f6f:	ba 0c 25 00 00       	mov    $0x250c,%edx
    4f74:	3d 0f 25 00 00       	cmp    $0x250f,%eax
    4f79:	0f 84 65 ff ff ff    	je     0x4ee4
    4f7f:	ba 10 25 00 00       	mov    $0x2510,%edx
    4f84:	3d 13 25 00 00       	cmp    $0x2513,%eax
    4f89:	eb 0a                	jmp    0x4f95
    4f8b:	ba 18 25 00 00       	mov    $0x2518,%edx
    4f90:	3d 1b 25 00 00       	cmp    $0x251b,%eax
    4f95:	0f 84 49 ff ff ff    	je     0x4ee4
    4f9b:	89 c2                	mov    %eax,%edx
    4f9d:	e9 42 ff ff ff       	jmp    0x4ee4
    4fa2:	44 8d 4a 01          	lea    0x1(%rdx),%r9d
    4fa6:	83 fa 1f             	cmp    $0x1f,%edx
    4fa9:	74 34                	je     0x4fdf
    4fab:	3d fe ff 00 00       	cmp    $0xfffe,%eax
    4fb0:	76 09                	jbe    0x4fbb
    4fb2:	48 ff c6             	inc    %rsi
    4fb5:	39 f1                	cmp    %esi,%ecx
    4fb7:	77 e9                	ja     0x4fa2
    4fb9:	eb 24                	jmp    0x4fdf
    4fbb:	45 31 c0             	xor    %r8d,%r8d
    4fbe:	66 45 85 db          	test   %r11w,%r11w
    4fc2:	74 0d                	je     0x4fd1
    4fc4:	4d 89 e0             	mov    %r12,%r8
    4fc7:	41 80 fa 02          	cmp    $0x2,%r10b
    4fcb:	76 04                	jbe    0x4fd1
    4fcd:	4c 8b 43 18          	mov    0x18(%rbx),%r8
    4fd1:	45 8b 04 b0          	mov    (%r8,%rsi,4),%r8d
    4fd5:	66 44 89 04 54       	mov    %r8w,(%rsp,%rdx,2)
    4fda:	44 89 ca             	mov    %r9d,%edx
    4fdd:	eb d3                	jmp    0x4fb2
    4fdf:	83 f8 7f             	cmp    $0x7f,%eax
    4fe2:	66 c7 04 54 00 00    	movw   $0x0,(%rsp,%rdx,2)
    4fe8:	48 bb 90 11 00 00 00 	movabs $0x1190,%rbx
    4fef:	00 00 00 
    4ff2:	77 15                	ja     0x5009
    4ff4:	66 f7 c7 f8 07       	test   $0x7f8,%di
    4ff9:	75 0e                	jne    0x5009
    4ffb:	48 8b 7d 08          	mov    0x8(%rbp),%rdi
    4fff:	48 89 e2             	mov    %rsp,%rdx
    5002:	48 89 ee             	mov    %rbp,%rsi
    5005:	ff d3                	call   *%rbx
    5007:	eb 11                	jmp    0x501a
    5009:	48 8b 7d 10          	mov    0x10(%rbp),%rdi
    500d:	48 89 e2             	mov    %rsp,%rdx
    5010:	48 89 ee             	mov    %rbp,%rsi
    5013:	ff d3                	call   *%rbx
    5015:	48 85 c0             	test   %rax,%rax
    5018:	74 e1                	je     0x4ffb
    501a:	48 83 c4 40          	add    $0x40,%rsp
    501e:	5b                   	pop    %rbx
    501f:	5d                   	pop    %rbp
    5020:	41 5c                	pop    %r12
    5022:	c3                   	ret    
    5023:	55                   	push   %rbp
    5024:	48 83 ec 10          	sub    $0x10,%rsp
    5028:	48 a1 28 f8 00 00 00 	movabs 0xf828,%rax
    502f:	00 00 00 
    5032:	48 8b 68 40          	mov    0x40(%rax),%rbp
    5036:	48 b8 c2 4d 00 00 00 	movabs $0x4dc2,%rax
    503d:	00 00 00 
    5040:	ff d0                	call   *%rax
    5042:	85 c0                	test   %eax,%eax
    5044:	74 13                	je     0x5059
    5046:	48 c7 04 24 50 00 00 	movq   $0x50,(%rsp)
    504d:	00 
    504e:	48 c7 44 24 08 19 00 	movq   $0x19,0x8(%rsp)
    5055:	00 00 
    5057:	eb 28                	jmp    0x5081
    5059:	48 8b 45 48          	mov    0x48(%rbp),%rax
    505d:	48 8b 7d 18          	mov    0x18(%rbp),%rdi
    5061:	4c 8d 44 24 08       	lea    0x8(%rsp),%r8
    5066:	48 89 e1             	mov    %rsp,%rcx
    5069:	48 89 ee             	mov    %rbp,%rsi
    506c:	48 63 50 04          	movslq 0x4(%rax),%rdx
    5070:	48 b8 af 11 00 00 00 	movabs $0x11af,%rax
    5077:	00 00 00 
    507a:	ff d0                	call   *%rax
    507c:	48 85 c0             	test   %rax,%rax
    507f:	75 c5                	jne    0x5046
    5081:	0f b7 54 24 08       	movzwl 0x8(%rsp),%edx
    5086:	0f b7 04 24          	movzwl (%rsp),%eax
    508a:	48 83 c4 10          	add    $0x10,%rsp
    508e:	5d                   	pop    %rbp
    508f:	c1 e2 10             	shl    $0x10,%edx
    5092:	09 d0                	or     %edx,%eax
    5094:	c3                   	ret    
    5095:	48 b8 80 f8 00 00 00 	movabs $0xf880,%rax
    509c:	00 00 00 
    509f:	41 54                	push   %r12
    50a1:	48 83 ec 10          	sub    $0x10,%rsp
    50a5:	44 8b 20             	mov    (%rax),%r12d
    50a8:	45 85 e4             	test   %r12d,%r12d
    50ab:	75 5d                	jne    0x510a
    50ad:	31 c9                	xor    %ecx,%ecx
    50af:	48 8b 7f 38          	mov    0x38(%rdi),%rdi
    50b3:	48 89 e2             	mov    %rsp,%rdx
    50b6:	48 8d 74 24 04       	lea    0x4(%rsp),%rsi
    50bb:	48 b8 f8 4a 00 00 00 	movabs $0x4af8,%rax
    50c2:	00 00 00 
    50c5:	ff d0                	call   *%rax
    50c7:	85 c0                	test   %eax,%eax
    50c9:	75 42                	jne    0x510d
    50cb:	8b 44 24 08          	mov    0x8(%rsp),%eax
    50cf:	85 c0                	test   %eax,%eax
    50d1:	79 3a                	jns    0x510d
    50d3:	41 89 c4             	mov    %eax,%r12d
    50d6:	41 83 e4 02          	and    $0x2,%r12d
    50da:	a8 01                	test   $0x1,%al
    50dc:	74 04                	je     0x50e2
    50de:	41 83 cc 01          	or     $0x1,%r12d
    50e2:	a8 20                	test   $0x20,%al
    50e4:	74 07                	je     0x50ed
    50e6:	41 81 cc 00 02 00 00 	or     $0x200,%r12d
    50ed:	a8 10                	test   $0x10,%al
    50ef:	74 04                	je     0x50f5
    50f1:	41 83 cc 08          	or     $0x8,%r12d
    50f5:	a8 08                	test   $0x8,%al
    50f7:	74 07                	je     0x5100
    50f9:	41 81 cc 00 01 00 00 	or     $0x100,%r12d
    5100:	a8 04                	test   $0x4,%al
    5102:	74 09                	je     0x510d
    5104:	41 83 cc 04          	or     $0x4,%r12d
    5108:	eb 03                	jmp    0x510d
    510a:	45 31 e4             	xor    %r12d,%r12d
    510d:	48 83 c4 10          	add    $0x10,%rsp
    5111:	44 89 e0             	mov    %r12d,%eax
    5114:	41 5c                	pop    %r12
    5116:	c3                   	ret    
    5117:	48 b8 80 f8 00 00 00 	movabs $0xf880,%rax
    511e:	00 00 00 
    5121:	41 54                	push   %r12
    5123:	48 83 ec 10          	sub    $0x10,%rsp
    5127:	44 8b 20             	mov    (%rax),%r12d
    512a:	45 85 e4             	test   %r12d,%r12d
    512d:	0f 85 bb 00 00 00    	jne    0x51ee
    5133:	48 8b 7f 38          	mov    0x38(%rdi),%rdi
    5137:	48 85 ff             	test   %rdi,%rdi
    513a:	74 75                	je     0x51b1
    513c:	c7 04 24 ff ff ff ff 	movl   $0xffffffff,(%rsp)
    5143:	b9 01 00 00 00       	mov    $0x1,%ecx
    5148:	48 89 e2             	mov    %rsp,%rdx
    514b:	48 8d 74 24 04       	lea    0x4(%rsp),%rsi
    5150:	48 b8 f8 4a 00 00 00 	movabs $0x4af8,%rax
    5157:	00 00 00 
    515a:	ff d0                	call   *%rax
    515c:	85 c0                	test   %eax,%eax
    515e:	0f 85 8d 00 00 00    	jne    0x51f1
    5164:	44 8b 24 24          	mov    (%rsp),%r12d
    5168:	45 85 e4             	test   %r12d,%r12d
    516b:	0f 84 80 00 00 00    	je     0x51f1
    5171:	8b 44 24 08          	mov    0x8(%rsp),%eax
    5175:	85 c0                	test   %eax,%eax
    5177:	79 32                	jns    0x51ab
    5179:	a8 03                	test   $0x3,%al
    517b:	74 12                	je     0x518f
    517d:	41 0f ba e4 17       	bt     $0x17,%r12d
    5182:	73 0b                	jae    0x518f
    5184:	41 81 cc 00 00 00 01 	or     $0x1000000,%r12d
    518b:	44 89 24 24          	mov    %r12d,(%rsp)
    518f:	a8 30                	test   $0x30,%al
    5191:	74 07                	je     0x519a
    5193:	81 0c 24 00 00 00 04 	orl    $0x4000000,(%rsp)
    519a:	8b 14 24             	mov    (%rsp),%edx
    519d:	a8 0c                	test   $0xc,%al
    519f:	74 0a                	je     0x51ab
    51a1:	89 d0                	mov    %edx,%eax
    51a3:	0d 00 00 00 02       	or     $0x2000000,%eax
    51a8:	89 04 24             	mov    %eax,(%rsp)
    51ab:	44 8b 24 24          	mov    (%rsp),%r12d
    51af:	eb 40                	jmp    0x51f1
    51b1:	48 a1 28 f8 00 00 00 	movabs 0xf828,%rax
    51b8:	00 00 00 
    51bb:	48 8d 54 24 04       	lea    0x4(%rsp),%rdx
    51c0:	48 8b 70 30          	mov    0x30(%rax),%rsi
    51c4:	48 b8 90 11 00 00 00 	movabs $0x1190,%rax
    51cb:	00 00 00 
    51ce:	48 8b 7e 08          	mov    0x8(%rsi),%rdi
    51d2:	ff d0                	call   *%rax
    51d4:	48 85 c0             	test   %rax,%rax
    51d7:	75 18                	jne    0x51f1
    51d9:	48 b8 71 4a 00 00 00 	movabs $0x4a71,%rax
    51e0:	00 00 00 
    51e3:	8b 7c 24 04          	mov    0x4(%rsp),%edi
    51e7:	ff d0                	call   *%rax
    51e9:	41 89 c4             	mov    %eax,%r12d
    51ec:	eb 03                	jmp    0x51f1
    51ee:	45 31 e4             	xor    %r12d,%r12d
    51f1:	48 83 c4 10          	add    $0x10,%rsp
    51f5:	44 89 e0             	mov    %r12d,%eax
    51f8:	41 5c                	pop    %r12
    51fa:	c3                   	ret    
    51fb:	48 bf a8 b7 01 00 00 	movabs $0x1b7a8,%rdi
    5202:	00 00 00 
    5205:	55                   	push   %rbp
    5206:	48 bd 98 b7 01 00 00 	movabs $0x1b798,%rbp
    520d:	00 00 00 
    5210:	48 be 00 e3 00 00 00 	movabs $0xe300,%rsi
    5217:	00 00 00 
    521a:	48 83 7d 00 00       	cmpq   $0x0,0x0(%rbp)
    521f:	75 12                	jne    0x5233
    5221:	48 a1 18 e3 00 00 00 	movabs 0xe318,%rax
    5228:	00 00 00 
    522b:	48 85 c0             	test   %rax,%rax
    522e:	75 11                	jne    0x5241
    5230:	48 89 ef             	mov    %rbp,%rdi
    5233:	48 b8 9f 90 00 00 00 	movabs $0x909f,%rax
    523a:	00 00 00 
    523d:	ff d0                	call   *%rax
    523f:	eb 13                	jmp    0x5254
    5241:	48 89 f7             	mov    %rsi,%rdi
    5244:	ff d0                	call   *%rax
    5246:	48 be 00 e3 00 00 00 	movabs $0xe300,%rsi
    524d:	00 00 00 
    5250:	85 c0                	test   %eax,%eax
    5252:	74 dc                	je     0x5230
    5254:	48 bd 90 b7 01 00 00 	movabs $0x1b790,%rbp
    525b:	00 00 00 
    525e:	48 bf a0 b7 01 00 00 	movabs $0x1b7a0,%rdi
    5265:	00 00 00 
    5268:	48 be a0 e3 00 00 00 	movabs $0xe3a0,%rsi
    526f:	00 00 00 
    5272:	48 83 7d 00 00       	cmpq   $0x0,0x0(%rbp)
    5277:	75 12                	jne    0x528b
    5279:	48 a1 b8 e3 00 00 00 	movabs 0xe3b8,%rax
    5280:	00 00 00 
    5283:	48 85 c0             	test   %rax,%rax
    5286:	75 10                	jne    0x5298
    5288:	48 89 ef             	mov    %rbp,%rdi
    528b:	48 b8 9f 90 00 00 00 	movabs $0x909f,%rax
    5292:	00 00 00 
    5295:	5d                   	pop    %rbp
    5296:	ff e0                	jmp    *%rax
    5298:	48 89 f7             	mov    %rsi,%rdi
    529b:	ff d0                	call   *%rax
    529d:	48 be a0 e3 00 00 00 	movabs $0xe3a0,%rsi
    52a4:	00 00 00 
    52a7:	85 c0                	test   %eax,%eax
    52a9:	74 dd                	je     0x5288
    52ab:	5d                   	pop    %rbp
    52ac:	c3                   	ret    
    52ad:	55                   	push   %rbp
    52ae:	48 bd a0 e3 00 00 00 	movabs $0xe3a0,%rbp
    52b5:	00 00 00 
    52b8:	53                   	push   %rbx
    52b9:	48 89 ef             	mov    %rbp,%rdi
    52bc:	48 bb b6 90 00 00 00 	movabs $0x90b6,%rbx
    52c3:	00 00 00 
    52c6:	50                   	push   %rax
    52c7:	ff d3                	call   *%rbx
    52c9:	48 89 ef             	mov    %rbp,%rdi
    52cc:	48 bd 00 e3 00 00 00 	movabs $0xe300,%rbp
    52d3:	00 00 00 
    52d6:	ff d3                	call   *%rbx
    52d8:	48 89 ef             	mov    %rbp,%rdi
    52db:	ff d3                	call   *%rbx
    52dd:	5a                   	pop    %rdx
    52de:	48 89 ef             	mov    %rbp,%rdi
    52e1:	48 89 d8             	mov    %rbx,%rax
    52e4:	5b                   	pop    %rbx
    52e5:	5d                   	pop    %rbp
    52e6:	ff e0                	jmp    *%rax
    52e8:	41 56                	push   %r14
    52ea:	41 55                	push   %r13
    52ec:	41 54                	push   %r12
    52ee:	55                   	push   %rbp
    52ef:	53                   	push   %rbx
    52f0:	48 85 ff             	test   %rdi,%rdi
    52f3:	75 05                	jne    0x52fa
    52f5:	45 31 ed             	xor    %r13d,%r13d
    52f8:	eb 5a                	jmp    0x5354
    52fa:	48 89 fb             	mov    %rdi,%rbx
    52fd:	ba 04 00 00 00       	mov    $0x4,%edx
    5302:	48 be f8 ca 00 00 00 	movabs $0xcaf8,%rsi
    5309:	00 00 00 
    530c:	49 bc e1 97 00 00 00 	movabs $0x97e1,%r12
    5313:	00 00 00 
    5316:	41 ff d4             	call   *%r12
    5319:	85 c0                	test   %eax,%eax
    531b:	75 d8                	jne    0x52f5
    531d:	49 be fd ca 00 00 00 	movabs $0xcafd,%r14
    5324:	00 00 00 
    5327:	8b 6b 04             	mov    0x4(%rbx),%ebp
    532a:	48 83 ed 24          	sub    $0x24,%rbp
    532e:	48 83 e5 fc          	and    $0xfffffffffffffffc,%rbp
    5332:	48 01 dd             	add    %rbx,%rbp
    5335:	48 39 eb             	cmp    %rbp,%rbx
    5338:	74 bb                	je     0x52f5
    533a:	44 8b 6b 24          	mov    0x24(%rbx),%r13d
    533e:	ba 04 00 00 00       	mov    $0x4,%edx
    5343:	4c 89 f6             	mov    %r14,%rsi
    5346:	48 83 c3 04          	add    $0x4,%rbx
    534a:	4c 89 ef             	mov    %r13,%rdi
    534d:	41 ff d4             	call   *%r12
    5350:	85 c0                	test   %eax,%eax
    5352:	75 e1                	jne    0x5335
    5354:	5b                   	pop    %rbx
    5355:	4c 89 e8             	mov    %r13,%rax
    5358:	5d                   	pop    %rbp
    5359:	41 5c                	pop    %r12
    535b:	41 5d                	pop    %r13
    535d:	41 5e                	pop    %r14
    535f:	c3                   	ret    
    5360:	31 c0                	xor    %eax,%eax
    5362:	48 01 fe             	add    %rdi,%rsi
    5365:	48 39 f7             	cmp    %rsi,%rdi
    5368:	73 07                	jae    0x5371
    536a:	02 07                	add    (%rdi),%al
    536c:	48 ff c7             	inc    %rdi
    536f:	eb f4                	jmp    0x5365
    5371:	c3                   	ret    
    5372:	48 b8 4d 54 00 00 00 	movabs $0x544d,%rax
    5379:	00 00 00 
    537c:	41 56                	push   %r14
    537e:	41 55                	push   %r13
    5380:	41 54                	push   %r12
    5382:	55                   	push   %rbp
    5383:	53                   	push   %rbx
    5384:	ff d0                	call   *%rax
    5386:	48 85 c0             	test   %rax,%rax
    5389:	75 16                	jne    0x53a1
    538b:	48 b8 ad 54 00 00 00 	movabs $0x54ad,%rax
    5392:	00 00 00 
    5395:	ff d0                	call   *%rax
    5397:	48 89 c3             	mov    %rax,%rbx
    539a:	48 85 c0             	test   %rax,%rax
    539d:	75 1f                	jne    0x53be
    539f:	eb 7d                	jmp    0x541e
    53a1:	8b 78 10             	mov    0x10(%rax),%edi
    53a4:	48 b8 e8 52 00 00 00 	movabs $0x52e8,%rax
    53ab:	00 00 00 
    53ae:	ff d0                	call   *%rax
    53b0:	49 89 c4             	mov    %rax,%r12
    53b3:	48 85 c0             	test   %rax,%rax
    53b6:	0f 85 85 00 00 00    	jne    0x5441
    53bc:	eb cd                	jmp    0x538b
    53be:	8b 78 10             	mov    0x10(%rax),%edi
    53c1:	48 b8 e8 52 00 00 00 	movabs $0x52e8,%rax
    53c8:	00 00 00 
    53cb:	ff d0                	call   *%rax
    53cd:	49 89 c4             	mov    %rax,%r12
    53d0:	48 85 c0             	test   %rax,%rax
    53d3:	75 6c                	jne    0x5441
    53d5:	48 8b 5b 18          	mov    0x18(%rbx),%rbx
    53d9:	48 85 db             	test   %rbx,%rbx
    53dc:	74 40                	je     0x541e
    53de:	ba 04 00 00 00       	mov    $0x4,%edx
    53e3:	48 89 df             	mov    %rbx,%rdi
    53e6:	48 be 02 cb 00 00 00 	movabs $0xcb02,%rsi
    53ed:	00 00 00 
    53f0:	48 bd e1 97 00 00 00 	movabs $0x97e1,%rbp
    53f7:	00 00 00 
    53fa:	ff d5                	call   *%rbp
    53fc:	85 c0                	test   %eax,%eax
    53fe:	75 1e                	jne    0x541e
    5400:	49 be fd ca 00 00 00 	movabs $0xcafd,%r14
    5407:	00 00 00 
    540a:	4c 8d 6b 24          	lea    0x24(%rbx),%r13
    540e:	8b 5b 04             	mov    0x4(%rbx),%ebx
    5411:	48 83 eb 24          	sub    $0x24,%rbx
    5415:	48 c1 eb 02          	shr    $0x2,%rbx
    5419:	48 85 db             	test   %rbx,%rbx
    541c:	75 05                	jne    0x5423
    541e:	45 31 e4             	xor    %r12d,%r12d
    5421:	eb 1e                	jmp    0x5441
    5423:	4d 8b 65 00          	mov    0x0(%r13),%r12
    5427:	ba 04 00 00 00       	mov    $0x4,%edx
    542c:	4c 89 f6             	mov    %r14,%rsi
    542f:	4c 89 e7             	mov    %r12,%rdi
    5432:	ff d5                	call   *%rbp
    5434:	85 c0                	test   %eax,%eax
    5436:	74 09                	je     0x5441
    5438:	48 ff cb             	dec    %rbx
    543b:	49 83 c5 08          	add    $0x8,%r13
    543f:	eb d8                	jmp    0x5419
    5441:	5b                   	pop    %rbx
    5442:	4c 89 e0             	mov    %r12,%rax
    5445:	5d                   	pop    %rbp
    5446:	41 5c                	pop    %r12
    5448:	41 5d                	pop    %r13
    544a:	41 5e                	pop    %r14
    544c:	c3                   	ret    
    544d:	41 54                	push   %r12
    544f:	49 bc 28 f8 00 00 00 	movabs $0xf828,%r12
    5456:	00 00 00 
    5459:	55                   	push   %rbp
    545a:	31 ed                	xor    %ebp,%ebp
    545c:	53                   	push   %rbx
    545d:	49 8b 04 24          	mov    (%r12),%rax
    5461:	89 eb                	mov    %ebp,%ebx
    5463:	48 3b 58 68          	cmp    0x68(%rax),%rbx
    5467:	73 3d                	jae    0x54a6
    5469:	48 6b db 18          	imul   $0x18,%rbx,%rbx
    546d:	48 8b 78 70          	mov    0x70(%rax),%rdi
    5471:	ba 10 00 00 00       	mov    $0x10,%edx
    5476:	48 be 00 e4 00 00 00 	movabs $0xe400,%rsi
    547d:	00 00 00 
    5480:	48 b8 e1 97 00 00 00 	movabs $0x97e1,%rax
    5487:	00 00 00 
    548a:	48 01 df             	add    %rbx,%rdi
    548d:	ff d0                	call   *%rax
    548f:	85 c0                	test   %eax,%eax
    5491:	75 0f                	jne    0x54a2
    5493:	49 8b 04 24          	mov    (%r12),%rax
    5497:	48 8b 40 70          	mov    0x70(%rax),%rax
    549b:	48 8b 44 18 10       	mov    0x10(%rax,%rbx,1),%rax
    54a0:	eb 06                	jmp    0x54a8
    54a2:	ff c5                	inc    %ebp
    54a4:	eb b7                	jmp    0x545d
    54a6:	31 c0                	xor    %eax,%eax
    54a8:	5b                   	pop    %rbx
    54a9:	5d                   	pop    %rbp
    54aa:	41 5c                	pop    %r12
    54ac:	c3                   	ret    
    54ad:	41 54                	push   %r12
    54af:	49 bc 28 f8 00 00 00 	movabs $0xf828,%r12
    54b6:	00 00 00 
    54b9:	55                   	push   %rbp
    54ba:	31 ed                	xor    %ebp,%ebp
    54bc:	53                   	push   %rbx
    54bd:	49 8b 04 24          	mov    (%r12),%rax
    54c1:	89 eb                	mov    %ebp,%ebx
    54c3:	48 3b 58 68          	cmp    0x68(%rax),%rbx
    54c7:	73 3d                	jae    0x5506
    54c9:	48 6b db 18          	imul   $0x18,%rbx,%rbx
    54cd:	48 8b 78 70          	mov    0x70(%rax),%rdi
    54d1:	ba 10 00 00 00       	mov    $0x10,%edx
    54d6:	48 be f0 e3 00 00 00 	movabs $0xe3f0,%rsi
    54dd:	00 00 00 
    54e0:	48 b8 e1 97 00 00 00 	movabs $0x97e1,%rax
    54e7:	00 00 00 
    54ea:	48 01 df             	add    %rbx,%rdi
    54ed:	ff d0                	call   *%rax
    54ef:	85 c0                	test   %eax,%eax
    54f1:	75 0f                	jne    0x5502
    54f3:	49 8b 04 24          	mov    (%r12),%rax
    54f7:	48 8b 40 70          	mov    0x70(%rax),%rax
    54fb:	48 8b 44 18 10       	mov    0x10(%rax,%rbx,1),%rax
    5500:	eb 06                	jmp    0x5508
    5502:	ff c5                	inc    %ebp
    5504:	eb b7                	jmp    0x54bd
    5506:	31 c0                	xor    %eax,%eax
    5508:	5b                   	pop    %rbx
    5509:	5d                   	pop    %rbp
    550a:	41 5c                	pop    %r12
    550c:	c3                   	ret    
    550d:	48 89 c8             	mov    %rcx,%rax
    5510:	0f b7 ce             	movzwl %si,%ecx
    5513:	66 83 fe 1d          	cmp    $0x1d,%si
    5517:	77 0d                	ja     0x5526
    5519:	ba 28 02 44 20       	mov    $0x20440228,%edx
    551e:	48 d3 ea             	shr    %cl,%rdx
    5521:	80 e2 01             	and    $0x1,%dl
    5524:	75 08                	jne    0x552e
    5526:	c7 00 01 00 00 00    	movl   $0x1,(%rax)
    552c:	eb 06                	jmp    0x5534
    552e:	c7 00 02 00 00 00    	movl   $0x2,(%rax)
    5534:	31 c0                	xor    %eax,%eax
    5536:	c3                   	ret    
    5537:	48 b8 a8 2c 00 00 00 	movabs $0x2ca8,%rax
    553e:	00 00 00 
    5541:	55                   	push   %rbp
    5542:	48 89 f5             	mov    %rsi,%rbp
    5545:	31 f6                	xor    %esi,%esi
    5547:	53                   	push   %rbx
    5548:	48 89 d3             	mov    %rdx,%rbx
    554b:	57                   	push   %rdi
    554c:	48 bf 80 e4 00 00 00 	movabs $0xe480,%rdi
    5553:	00 00 00 
    5556:	ff d0                	call   *%rax
    5558:	bf 1e 00 00 00       	mov    $0x1e,%edi
    555d:	48 be 07 cb 00 00 00 	movabs $0xcb07,%rsi
    5564:	00 00 00 
    5567:	48 85 c0             	test   %rax,%rax
    556a:	74 1d                	je     0x5589
    556c:	89 de                	mov    %ebx,%esi
    556e:	48 89 ef             	mov    %rbp,%rdi
    5571:	ff 10                	call   *(%rax)
    5573:	48 85 c0             	test   %rax,%rax
    5576:	74 20                	je     0x5598
    5578:	48 be 24 cb 00 00 00 	movabs $0xcb24,%rsi
    557f:	00 00 00 
    5582:	bf 2d 00 00 00       	mov    $0x2d,%edi
    5587:	31 c0                	xor    %eax,%eax
    5589:	48 ba 43 86 00 00 00 	movabs $0x8643,%rdx
    5590:	00 00 00 
    5593:	59                   	pop    %rcx
    5594:	5b                   	pop    %rbx
    5595:	5d                   	pop    %rbp
    5596:	ff e2                	jmp    *%rdx
    5598:	5a                   	pop    %rdx
    5599:	31 c0                	xor    %eax,%eax
    559b:	5b                   	pop    %rbx
    559c:	5d                   	pop    %rbp
    559d:	c3                   	ret    
    559e:	48 bf 50 cb 00 00 00 	movabs $0xcb50,%rdi
    55a5:	00 00 00 
    55a8:	41 54                	push   %r12
    55aa:	49 bc 20 e4 00 00 00 	movabs $0xe420,%r12
    55b1:	00 00 00 
    55b4:	53                   	push   %rbx
    55b5:	4c 89 e6             	mov    %r12,%rsi
    55b8:	48 bb 49 32 00 00 00 	movabs $0x3249,%rbx
    55bf:	00 00 00 
    55c2:	48 83 ec 38          	sub    $0x38,%rsp
    55c6:	48 8d 54 24 10       	lea    0x10(%rsp),%rdx
    55cb:	48 8d 4c 24 18       	lea    0x18(%rsp),%rcx
    55d0:	c7 44 24 0c 00 00 00 	movl   $0x0,0xc(%rsp)
    55d7:	00 
    55d8:	48 c7 44 24 10 00 00 	movq   $0x0,0x10(%rsp)
    55df:	00 00 
    55e1:	48 c7 44 24 18 00 00 	movq   $0x0,0x18(%rsp)
    55e8:	00 00 
    55ea:	48 c7 44 24 20 00 00 	movq   $0x0,0x20(%rsp)
    55f1:	00 00 
    55f3:	48 c7 44 24 28 00 00 	movq   $0x0,0x28(%rsp)
    55fa:	00 00 
    55fc:	ff d3                	call   *%rbx
    55fe:	48 ba 0e 00 00 00 00 	movabs $0x800000000000000e,%rdx
    5605:	00 00 80 
    5608:	48 39 d0             	cmp    %rdx,%rax
    560b:	75 08                	jne    0x5615
    560d:	41 b4 02             	mov    $0x2,%r12b
    5610:	e9 88 00 00 00       	jmp    0x569d
    5615:	48 85 c0             	test   %rax,%rax
    5618:	74 05                	je     0x561f
    561a:	41 b4 01             	mov    $0x1,%r12b
    561d:	eb 7e                	jmp    0x569d
    561f:	48 8d 4c 24 20       	lea    0x20(%rsp),%rcx
    5624:	48 8d 54 24 10       	lea    0x10(%rsp),%rdx
    5629:	4c 89 e6             	mov    %r12,%rsi
    562c:	48 bf 5b cb 00 00 00 	movabs $0xcb5b,%rdi
    5633:	00 00 00 
    5636:	ff d3                	call   *%rbx
    5638:	48 85 c0             	test   %rax,%rax
    563b:	75 dd                	jne    0x561a
    563d:	48 8b 44 24 18       	mov    0x18(%rsp),%rax
    5642:	80 38 00             	cmpb   $0x0,(%rax)
    5645:	74 c6                	je     0x560d
    5647:	48 8b 44 24 20       	mov    0x20(%rsp),%rax
    564c:	80 38 01             	cmpb   $0x1,(%rax)
    564f:	74 bc                	je     0x560d
    5651:	4c 8d 44 24 0c       	lea    0xc(%rsp),%r8
    5656:	48 8d 4c 24 28       	lea    0x28(%rsp),%rcx
    565b:	41 b4 03             	mov    $0x3,%r12b
    565e:	48 be 80 e4 00 00 00 	movabs $0xe480,%rsi
    5665:	00 00 00 
    5668:	48 bf 65 cb 00 00 00 	movabs $0xcb65,%rdi
    566f:	00 00 00 
    5672:	48 8d 54 24 10       	lea    0x10(%rsp),%rdx
    5677:	48 b8 db 30 00 00 00 	movabs $0x30db,%rax
    567e:	00 00 00 
    5681:	ff d0                	call   *%rax
    5683:	48 85 c0             	test   %rax,%rax
    5686:	75 15                	jne    0x569d
    5688:	f6 44 24 0c 04       	testb  $0x4,0xc(%rsp)
    568d:	75 0e                	jne    0x569d
    568f:	48 8b 44 24 28       	mov    0x28(%rsp),%rax
    5694:	80 38 01             	cmpb   $0x1,(%rax)
    5697:	0f 84 70 ff ff ff    	je     0x560d
    569d:	48 bb 12 5c 00 00 00 	movabs $0x5c12,%rbx
    56a4:	00 00 00 
    56a7:	48 8b 7c 24 28       	mov    0x28(%rsp),%rdi
    56ac:	ff d3                	call   *%rbx
    56ae:	48 8b 7c 24 20       	mov    0x20(%rsp),%rdi
    56b3:	ff d3                	call   *%rbx
    56b5:	48 8b 7c 24 18       	mov    0x18(%rsp),%rdi
    56ba:	ff d3                	call   *%rbx
    56bc:	49 b8 37 cb 00 00 00 	movabs $0xcb37,%r8
    56c3:	00 00 00 
    56c6:	41 80 fc 02          	cmp    $0x2,%r12b
    56ca:	74 1c                	je     0x56e8
    56cc:	49 b8 40 cb 00 00 00 	movabs $0xcb40,%r8
    56d3:	00 00 00 
    56d6:	41 80 fc 03          	cmp    $0x3,%r12b
    56da:	48 b8 48 cb 00 00 00 	movabs $0xcb48,%rax
    56e1:	00 00 00 
    56e4:	4c 0f 44 c0          	cmove  %rax,%r8
    56e8:	31 c0                	xor    %eax,%eax
    56ea:	be 6f 00 00 00       	mov    $0x6f,%esi
    56ef:	48 b9 70 cb 00 00 00 	movabs $0xcb70,%rcx
    56f6:	00 00 00 
    56f9:	48 ba 8c cb 00 00 00 	movabs $0xcb8c,%rdx
    5700:	00 00 00 
    5703:	48 bf 90 cb 00 00 00 	movabs $0xcb90,%rdi
    570a:	00 00 00 
    570d:	49 b9 b7 a6 00 00 00 	movabs $0xa6b7,%r9
    5714:	00 00 00 
    5717:	41 ff d1             	call   *%r9
    571a:	48 83 c4 38          	add    $0x38,%rsp
    571e:	44 89 e0             	mov    %r12d,%eax
    5721:	5b                   	pop    %rbx
    5722:	41 5c                	pop    %r12
    5724:	c3                   	ret    
    5725:	48 bf 80 e4 00 00 00 	movabs $0xe480,%rdi
    572c:	00 00 00 
    572f:	55                   	push   %rbp
    5730:	31 f6                	xor    %esi,%esi
    5732:	48 b8 a8 2c 00 00 00 	movabs $0x2ca8,%rax
    5739:	00 00 00 
    573c:	ff d0                	call   *%rax
    573e:	48 85 c0             	test   %rax,%rax
    5741:	75 44                	jne    0x5787
    5743:	48 a1 48 f8 00 00 00 	movabs 0xf848,%rax
    574a:	00 00 00 
    574d:	48 85 c0             	test   %rax,%rax
    5750:	74 35                	je     0x5787
    5752:	81 38 6d 69 6d 67    	cmpl   $0x676d696d,(%rax)
    5758:	75 2d                	jne    0x5787
    575a:	48 8b 50 08          	mov    0x8(%rax),%rdx
